ARM GAS  /tmp/ccPmer3D.s 			page 1


   1              		.cpu cortex-m0
   2              		.fpu softvfp
   3              		.eabi_attribute 20, 1	@ Tag_ABI_FP_denormal
   4              		.eabi_attribute 21, 1	@ Tag_ABI_FP_exceptions
   5              		.eabi_attribute 23, 3	@ Tag_ABI_FP_number_model
   6              		.eabi_attribute 24, 1	@ Tag_ABI_align8_needed
   7              		.eabi_attribute 25, 1	@ Tag_ABI_align8_preserved
   8              		.eabi_attribute 26, 1	@ Tag_ABI_enum_size
   9              		.eabi_attribute 30, 4	@ Tag_ABI_optimization_goals
  10              		.eabi_attribute 34, 0	@ Tag_CPU_unaligned_access
  11              		.eabi_attribute 18, 4	@ Tag_ABI_PCS_wchar_t
  12              		.file	"BQ7695.c"
  13              	@ GNU C (GNU Tools for ARM Embedded Processors) version 4.9.3 20150529 (release) [ARM/embedded-4_9-
  14              	@	compiled by GNU C version 4.8.4, GMP version 5.1.3, MPFR version 3.1.2-p3, MPC version 1.0.1
  15              	@ GGC heuristics: --param ggc-min-expand=98 --param ggc-min-heapsize=128397
  16              	@ options passed:  -I . -I ../../lpc11cx4-library/lpc_chip_11cxx_lib/inc
  17              	@ -I ../../lpc11cx4-library/evt_lib/inc -I inc -imultilib armv6-m
  18              	@ -iprefix /usr/bin/../lib/gcc/arm-none-eabi/4.9.3/
  19              	@ -isysroot /usr/bin/../arm-none-eabi -MD bin/BQ7695.d -MF bin/BQ7695.d -MP
  20              	@ -MQ bin/BQ7695.o -D__USES_INITFINI__ -D CORE_M0 src/BQ7695.c
  21              	@ -mcpu=cortex-m0 -mthumb -auxbase-strip bin/BQ7695.o -g -ggdb3 -Os -Wall
  22              	@ -Wstrict-prototypes -Wextra -std=gnu90 -ffunction-sections
  23              	@ -fdata-sections -fverbose-asm -fstack-usage
  24              	@ options enabled:  -faggressive-loop-optimizations -fauto-inc-dec
  25              	@ -fbranch-count-reg -fcaller-saves -fcombine-stack-adjustments -fcommon
  26              	@ -fcompare-elim -fcprop-registers -fcrossjumping -fcse-follow-jumps
  27              	@ -fdata-sections -fdefer-pop -fdelete-null-pointer-checks -fdevirtualize
  28              	@ -fdevirtualize-speculatively -fdwarf2-cfi-asm -fearly-inlining
  29              	@ -feliminate-unused-debug-types -fexpensive-optimizations
  30              	@ -fforward-propagate -ffunction-cse -ffunction-sections -fgcse -fgcse-lm
  31              	@ -fgnu-runtime -fgnu-unique -fguess-branch-probability
  32              	@ -fhoist-adjacent-loads -fident -fif-conversion -fif-conversion2
  33              	@ -findirect-inlining -finline -finline-atomics -finline-functions
  34              	@ -finline-functions-called-once -finline-small-functions -fipa-cp
  35              	@ -fipa-profile -fipa-pure-const -fipa-reference -fipa-sra
  36              	@ -fira-hoist-pressure -fira-share-save-slots -fira-share-spill-slots
  37              	@ -fisolate-erroneous-paths-dereference -fivopts -fkeep-static-consts
  38              	@ -fleading-underscore -flifetime-dse -fmath-errno -fmerge-constants
  39              	@ -fmerge-debug-strings -fomit-frame-pointer -foptimize-sibling-calls
  40              	@ -fpartial-inlining -fpeephole -fpeephole2 -fprefetch-loop-arrays
  41              	@ -freg-struct-return -freorder-blocks -freorder-functions
  42              	@ -frerun-cse-after-loop -fsched-critical-path-heuristic
  43              	@ -fsched-dep-count-heuristic -fsched-group-heuristic -fsched-interblock
  44              	@ -fsched-last-insn-heuristic -fsched-pressure -fsched-rank-heuristic
  45              	@ -fsched-spec -fsched-spec-insn-heuristic -fsched-stalled-insns-dep
  46              	@ -fschedule-insns2 -fsection-anchors -fshow-column -fshrink-wrap
  47              	@ -fsigned-zeros -fsplit-ivs-in-unroller -fsplit-wide-types
  48              	@ -fstrict-aliasing -fstrict-overflow -fstrict-volatile-bitfields
  49              	@ -fsync-libcalls -fthread-jumps -ftoplevel-reorder -ftrapping-math
  50              	@ -ftree-bit-ccp -ftree-builtin-call-dce -ftree-ccp -ftree-ch
  51              	@ -ftree-coalesce-vars -ftree-copy-prop -ftree-copyrename -ftree-cselim
  52              	@ -ftree-dce -ftree-dominator-opts -ftree-dse -ftree-forwprop -ftree-fre
  53              	@ -ftree-loop-if-convert -ftree-loop-im -ftree-loop-ivcanon
  54              	@ -ftree-loop-optimize -ftree-parallelize-loops= -ftree-phiprop -ftree-pre
  55              	@ -ftree-pta -ftree-reassoc -ftree-scev-cprop -ftree-sink -ftree-slsr
  56              	@ -ftree-sra -ftree-switch-conversion -ftree-tail-merge -ftree-ter
  57              	@ -ftree-vrp -funit-at-a-time -fvar-tracking -fvar-tracking-assignments
ARM GAS  /tmp/ccPmer3D.s 			page 2


  58              	@ -fverbose-asm -fzero-initialized-in-bss -mlittle-endian -mlra
  59              	@ -mpic-data-is-text-relative -msched-prolog -mthumb
  60              	@ -mvectorize-with-neon-quad
  61              	
  62              		.text
  63              	.Ltext0:
  64              		.cfi_sections	.debug_frame
  65              		.section	.text.BQ7695_set_cell,"ax",%progbits
  66              		.align	1
  67              		.global	BQ7695_set_cell
  68              		.code	16
  69              		.thumb_func
  70              		.type	BQ7695_set_cell, %function
  71              	BQ7695_set_cell:
  72              	.LFB198:
  73              		.file 1 "src/BQ7695.c"
   1:src/BQ7695.c  **** #include <chip.h>
   2:src/BQ7695.c  **** #include <BQ7695.h>
   3:src/BQ7695.c  **** #include <board.h>
   4:src/BQ7695.c  **** 
   5:src/BQ7695.c  **** uint8_t rx_buf[10];
   6:src/BQ7695.c  **** uint8_t tx;
   7:src/BQ7695.c  **** 
   8:src/BQ7695.c  **** uint8_t BQ7695_set_cell(uint8_t cell){
  74              		.loc 1 8 0
  75              		.cfi_startproc
  76              	.LVL0:
  77 0000 10B5     		push	{r4, lr}	@
  78              		.cfi_def_cfa_offset 8
  79              		.cfi_offset 4, -8
  80              		.cfi_offset 14, -4
  81 0002 0B4A     		ldr	r2, .L5	@ tmp128,
   9:src/BQ7695.c  **** 	if(cell == 7){	// Output the VREF
  82              		.loc 1 9 0
  83 0004 0728     		cmp	r0, #7	@ cell,
  84 0006 02D1     		bne	.L2	@,
  10:src/BQ7695.c  **** 		tx = (3<<4);
  85              		.loc 1 10 0
  86 0008 3023     		mov	r3, #48	@ tmp115,
  87 000a 1370     		strb	r3, [r2]	@ tmp115, tx
  88 000c 02E0     		b	.L3	@
  89              	.L2:
  11:src/BQ7695.c  **** 	}
  12:src/BQ7695.c  **** 	else{
  13:src/BQ7695.c  **** 		tx = ((1<<4)|cell);
  90              		.loc 1 13 0
  91 000e 1023     		mov	r3, #16	@ tmp119,
  92 0010 1843     		orr	r0, r3	@ tmp118, tmp119
  93              	.LVL1:
  94 0012 1070     		strb	r0, [r2]	@ tmp118, tx
  95              	.L3:
  14:src/BQ7695.c  **** 	}
  15:src/BQ7695.c  **** 	BQ7695_Write(I2C_ADDRESS_CELL_CTL,&tx);
  96              		.loc 1 15 0
  97 0014 2121     		mov	r1, #33	@,
  98 0016 0123     		mov	r3, #1	@,
  99 0018 0020     		mov	r0, #0	@,
ARM GAS  /tmp/ccPmer3D.s 			page 3


 100 001a FFF7FEFF 		bl	Chip_I2C_MasterSend	@
 101              	.LVL2:
  16:src/BQ7695.c  **** 	BQ7695_Read(I2C_ADDRESS_CELL_CTL,rx_buf);
 102              		.loc 1 16 0
 103 001e 054C     		ldr	r4, .L5+4	@ tmp122,
 104 0020 2121     		mov	r1, #33	@,
 105 0022 221C     		mov	r2, r4	@, tmp122
 106 0024 0123     		mov	r3, #1	@,
 107 0026 0020     		mov	r0, #0	@,
 108 0028 FFF7FEFF 		bl	Chip_I2C_MasterRead	@
 109              	.LVL3:
  17:src/BQ7695.c  **** 	return rx_buf[0];
  18:src/BQ7695.c  **** }
 110              		.loc 1 18 0
 111              		@ sp needed	@
  17:src/BQ7695.c  **** 	return rx_buf[0];
 112              		.loc 1 17 0
 113 002c 2078     		ldrb	r0, [r4]	@ rx_buf, rx_buf
 114              		.loc 1 18 0
 115 002e 10BD     		pop	{r4, pc}
 116              	.L6:
 117              		.align	2
 118              	.L5:
 119 0030 00000000 		.word	tx
 120 0034 00000000 		.word	rx_buf
 121              		.cfi_endproc
 122              	.LFE198:
 123              		.size	BQ7695_set_cell, .-BQ7695_set_cell
 124              		.section	.text.BQ7695_disable_unecessary,"ax",%progbits
 125              		.align	1
 126              		.global	BQ7695_disable_unecessary
 127              		.code	16
 128              		.thumb_func
 129              		.type	BQ7695_disable_unecessary, %function
 130              	BQ7695_disable_unecessary:
 131              	.LFB199:
  19:src/BQ7695.c  **** 
  20:src/BQ7695.c  **** uint8_t BQ7695_disable_unecessary(){
 132              		.loc 1 20 0
 133              		.cfi_startproc
 134 0000 13B5     		push	{r0, r1, r4, lr}	@
 135              		.cfi_def_cfa_offset 16
 136              		.cfi_offset 0, -16
 137              		.cfi_offset 1, -12
 138              		.cfi_offset 4, -8
 139              		.cfi_offset 14, -4
  21:src/BQ7695.c  **** 	uint8_t power = 0x45; // Everything disabled
 140              		.loc 1 21 0
 141 0002 6B46     		mov	r3, sp	@ tmp119,
 142 0004 DA1D     		add	r2, r3, #7	@ tmp112, tmp119,
 143 0006 4523     		mov	r3, #69	@ tmp113,
  22:src/BQ7695.c  **** 	BQ7695_Write(I2C_ADDRESS_POWER_CTL, &power);
 144              		.loc 1 22 0
 145 0008 2521     		mov	r1, #37	@,
  21:src/BQ7695.c  **** 	uint8_t power = 0x45; // Everything disabled
 146              		.loc 1 21 0
 147 000a 1370     		strb	r3, [r2]	@ tmp113, power
ARM GAS  /tmp/ccPmer3D.s 			page 4


 148              		.loc 1 22 0
 149 000c 0020     		mov	r0, #0	@,
 150 000e 443B     		sub	r3, r3, #68	@,
 151 0010 FFF7FEFF 		bl	Chip_I2C_MasterSend	@
 152              	.LVL4:
  23:src/BQ7695.c  **** 	BQ7695_Read(I2C_ADDRESS_POWER_CTL, rx_buf);
 153              		.loc 1 23 0
 154 0014 044C     		ldr	r4, .L8	@ tmp116,
 155 0016 2521     		mov	r1, #37	@,
 156 0018 221C     		mov	r2, r4	@, tmp116
 157 001a 0123     		mov	r3, #1	@,
 158 001c 0020     		mov	r0, #0	@,
 159 001e FFF7FEFF 		bl	Chip_I2C_MasterRead	@
 160              	.LVL5:
  24:src/BQ7695.c  **** 	return rx_buf[0];
  25:src/BQ7695.c  **** }
 161              		.loc 1 25 0
 162              		@ sp needed	@
  24:src/BQ7695.c  **** 	return rx_buf[0];
 163              		.loc 1 24 0
 164 0022 2078     		ldrb	r0, [r4]	@ D.6655, rx_buf
 165              		.loc 1 25 0
 166 0024 16BD     		pop	{r1, r2, r4, pc}
 167              	.L9:
 168 0026 C046     		.align	2
 169              	.L8:
 170 0028 00000000 		.word	rx_buf
 171              		.cfi_endproc
 172              	.LFE199:
 173              		.size	BQ7695_disable_unecessary, .-BQ7695_disable_unecessary
 174              		.section	.text.BQ7695_read_offset_corr,"ax",%progbits
 175              		.align	1
 176              		.global	BQ7695_read_offset_corr
 177              		.code	16
 178              		.thumb_func
 179              		.type	BQ7695_read_offset_corr, %function
 180              	BQ7695_read_offset_corr:
 181              	.LFB200:
  26:src/BQ7695.c  **** 
  27:src/BQ7695.c  **** 
  28:src/BQ7695.c  **** int8_t BQ7695_read_offset_corr(uint8_t vc){
 182              		.loc 1 28 0
 183              		.cfi_startproc
 184              	.LVL6:
  29:src/BQ7695.c  **** 	uint8_t offset = 0;
  30:src/BQ7695.c  **** 	int8_t sOffset = 0;
  31:src/BQ7695.c  **** 	BQ7695_Read(I2C_ADDRESS_VREF_CAL + vc,rx_buf); // lower bits
 185              		.loc 1 31 0
 186 0000 011C     		mov	r1, r0	@ tmp173, vc
  28:src/BQ7695.c  **** 	uint8_t offset = 0;
 187              		.loc 1 28 0
 188 0002 F8B5     		push	{r3, r4, r5, r6, r7, lr}	@
 189              		.cfi_def_cfa_offset 24
 190              		.cfi_offset 3, -24
 191              		.cfi_offset 4, -20
 192              		.cfi_offset 5, -16
 193              		.cfi_offset 6, -12
ARM GAS  /tmp/ccPmer3D.s 			page 5


 194              		.cfi_offset 7, -8
 195              		.cfi_offset 14, -4
 196              		.loc 1 31 0
 197 0004 2025     		mov	r5, #32	@ tmp176,
 198 0006 294E     		ldr	r6, .L27	@ tmp178,
 199 0008 1031     		add	r1, r1, #16	@ tmp173,
 200 000a 2943     		orr	r1, r5	@ tmp175, tmp176
  28:src/BQ7695.c  **** 	uint8_t offset = 0;
 201              		.loc 1 28 0
 202 000c 071C     		mov	r7, r0	@ vc, vc
 203              		.loc 1 31 0
 204 000e C9B2     		uxtb	r1, r1	@ tmp177, tmp175
 205 0010 0020     		mov	r0, #0	@,
 206              	.LVL7:
 207 0012 321C     		mov	r2, r6	@, tmp178
 208 0014 0123     		mov	r3, #1	@,
 209 0016 FFF7FEFF 		bl	Chip_I2C_MasterRead	@
 210              	.LVL8:
  32:src/BQ7695.c  **** 	offset = rx_buf[0];
 211              		.loc 1 32 0
 212 001a 3478     		ldrb	r4, [r6]	@ offset, rx_buf
 213              	.LVL9:
  33:src/BQ7695.c  **** 	if(vc == 0){
 214              		.loc 1 33 0
 215 001c 002F     		cmp	r7, #0	@ vc,
 216 001e 10D1     		bne	.L11	@,
  34:src/BQ7695.c  **** 		BQ7695_Read(I2C_ADDRESS_VREF_CAL_EXT, rx_buf);
 217              		.loc 1 34 0
 218 0020 0123     		mov	r3, #1	@,
 219 0022 381C     		mov	r0, r7	@, vc
 220 0024 3B21     		mov	r1, #59	@,
 221 0026 321C     		mov	r2, r6	@, tmp178
 222 0028 FFF7FEFF 		bl	Chip_I2C_MasterRead	@
 223              	.LVL10:
  35:src/BQ7695.c  **** 		offset |= (rx_buf[0] & I2C_MASK_VREF_CAL_EXT_VREF_OC_4)<< 3;
 224              		.loc 1 35 0
 225 002c 0223     		mov	r3, #2	@ tmp185,
 226 002e 3078     		ldrb	r0, [r6]	@ rx_buf, rx_buf
 227 0030 1840     		and	r0, r3	@ D.6661, tmp185
 228 0032 C000     		lsl	r0, r0, #3	@ D.6661, D.6661,
 229 0034 2043     		orr	r0, r4	@ sOffset, offset
 230 0036 C3B2     		uxtb	r3, r0	@ offset, sOffset
 231              	.LVL11:
  36:src/BQ7695.c  **** 	}
  37:src/BQ7695.c  **** 	else if(vc < 3){
  38:src/BQ7695.c  **** 		BQ7695_Read(I2C_ADDRESS_VC_CAL_EXT_1,rx_buf);
  39:src/BQ7695.c  **** 		if(vc == 1){
  40:src/BQ7695.c  **** 			offset |= (rx_buf[0] & I2C_MASK_VC_CAL_EXT_1_VC1_OC_4) >> 3;
  41:src/BQ7695.c  **** 		}
  42:src/BQ7695.c  **** 		else if(vc == 2){
  43:src/BQ7695.c  **** 			offset |= (rx_buf[0] & I2C_MASK_VC_CAL_EXT_1_VC2_OC_4) >> 1;
  44:src/BQ7695.c  **** 		}
  45:src/BQ7695.c  **** 	}
  46:src/BQ7695.c  **** 	else{
  47:src/BQ7695.c  **** 		BQ7695_Read(I2C_ADDRESS_VREF_CAL_EXT, rx_buf);
  48:src/BQ7695.c  **** 		if(vc == 3){
  49:src/BQ7695.c  **** 			offset |= (rx_buf[0] & I2C_MASK_VC_CAL_EXT_2_VC3_OC_4) >> 3;
ARM GAS  /tmp/ccPmer3D.s 			page 6


  50:src/BQ7695.c  **** 		}
  51:src/BQ7695.c  **** 		else if(vc==4){
  52:src/BQ7695.c  **** 			offset |= (rx_buf[0] & I2C_MASK_VC_CAL_EXT_2_VC4_OC_4) >> 1;
  53:src/BQ7695.c  **** 		}
  54:src/BQ7695.c  **** 		else if(vc==5){
  55:src/BQ7695.c  **** 			offset |= (rx_buf[0] & I2C_MASK_VC_CAL_EXT_2_VC5_OC_4) << 1;
  56:src/BQ7695.c  **** 		}
  57:src/BQ7695.c  **** 		else if(vc==6){
  58:src/BQ7695.c  **** 			offset |= (rx_buf[0] & I2C_MASK_VC_CAL_EXT_2_VC6_OC_4) << 3;
  59:src/BQ7695.c  **** 		}
  60:src/BQ7695.c  **** 
  61:src/BQ7695.c  **** 	}
  62:src/BQ7695.c  **** 	if(vc == 0){
  63:src/BQ7695.c  **** 		if(offset & 0x20){	// Convert the 6 bit two's complement
 232              		.loc 1 63 0
 233 0038 2B42     		tst	r3, r5	@ offset, tmp176
 234 003a 35D0     		beq	.L13	@,
  64:src/BQ7695.c  **** 			sOffset = -1*(0x20-(offset & 0x1F));
 235              		.loc 1 64 0
 236 003c E020     		mov	r0, #224	@ tmp260,
 237 003e 1843     		orr	r0, r3	@ sOffset, offset
 238              	.LVL12:
 239 0040 32E0     		b	.L13	@
 240              	.LVL13:
 241              	.L11:
  38:src/BQ7695.c  **** 		if(vc == 1){
 242              		.loc 1 38 0
 243 0042 0020     		mov	r0, #0	@,
  37:src/BQ7695.c  **** 		BQ7695_Read(I2C_ADDRESS_VC_CAL_EXT_1,rx_buf);
 244              		.loc 1 37 0
 245 0044 022F     		cmp	r7, #2	@ vc,
 246 0046 08D8     		bhi	.L14	@,
  38:src/BQ7695.c  **** 		if(vc == 1){
 247              		.loc 1 38 0
 248 0048 0123     		mov	r3, #1	@,
 249 004a 3721     		mov	r1, #55	@,
 250 004c 321C     		mov	r2, r6	@, tmp178
 251 004e FFF7FEFF 		bl	Chip_I2C_MasterRead	@
 252              	.LVL14:
 253 0052 3378     		ldrb	r3, [r6]	@ rx_buf, rx_buf
  39:src/BQ7695.c  **** 			offset |= (rx_buf[0] & I2C_MASK_VC_CAL_EXT_1_VC1_OC_4) >> 3;
 254              		.loc 1 39 0
 255 0054 012F     		cmp	r7, #1	@ vc,
 256 0056 0FD1     		bne	.L25	@,
 257 0058 07E0     		b	.L26	@
 258              	.L14:
  47:src/BQ7695.c  **** 		if(vc == 3){
 259              		.loc 1 47 0
 260 005a 3B21     		mov	r1, #59	@,
 261 005c 321C     		mov	r2, r6	@, tmp178
 262 005e 0123     		mov	r3, #1	@,
 263 0060 FFF7FEFF 		bl	Chip_I2C_MasterRead	@
 264              	.LVL15:
  48:src/BQ7695.c  **** 			offset |= (rx_buf[0] & I2C_MASK_VC_CAL_EXT_2_VC3_OC_4) >> 3;
 265              		.loc 1 48 0
 266 0064 032F     		cmp	r7, #3	@ vc,
 267 0066 04D1     		bne	.L17	@,
ARM GAS  /tmp/ccPmer3D.s 			page 7


  49:src/BQ7695.c  **** 		}
 268              		.loc 1 49 0
 269 0068 3378     		ldrb	r3, [r6]	@ rx_buf, rx_buf
 270              	.L26:
 271 006a 7F22     		mov	r2, #127	@ tmp221,
 272 006c 9343     		bic	r3, r2	@ D.6661, tmp221
 273 006e DB10     		asr	r3, r3, #3	@ D.6661, D.6661,
 274 0070 0CE0     		b	.L24	@
 275              	.L17:
  51:src/BQ7695.c  **** 			offset |= (rx_buf[0] & I2C_MASK_VC_CAL_EXT_2_VC4_OC_4) >> 1;
 276              		.loc 1 51 0
 277 0072 042F     		cmp	r7, #4	@ vc,
 278 0074 04D1     		bne	.L18	@,
  52:src/BQ7695.c  **** 		}
 279              		.loc 1 52 0
 280 0076 3378     		ldrb	r3, [r6]	@ rx_buf, rx_buf
 281              	.L25:
 282 0078 1D40     		and	r5, r3	@ D.6661, rx_buf
 283 007a 6D10     		asr	r5, r5, #1	@ D.6661, D.6661,
 284 007c 2C43     		orr	r4, r5	@ offset, D.6661
 285              	.LVL16:
 286 007e 0EE0     		b	.L16	@
 287              	.L18:
  54:src/BQ7695.c  **** 			offset |= (rx_buf[0] & I2C_MASK_VC_CAL_EXT_2_VC5_OC_4) << 1;
 288              		.loc 1 54 0
 289 0080 052F     		cmp	r7, #5	@ vc,
 290 0082 05D1     		bne	.L19	@,
  55:src/BQ7695.c  **** 		}
 291              		.loc 1 55 0
 292 0084 0823     		mov	r3, #8	@ tmp241,
 293 0086 3278     		ldrb	r2, [r6]	@ rx_buf, rx_buf
 294 0088 1340     		and	r3, r2	@ D.6661, rx_buf
 295 008a 5B00     		lsl	r3, r3, #1	@ D.6661, D.6661,
 296              	.L24:
 297 008c 1C43     		orr	r4, r3	@ offset, D.6661
 298              	.LVL17:
 299 008e 06E0     		b	.L16	@
 300              	.L19:
  57:src/BQ7695.c  **** 			offset |= (rx_buf[0] & I2C_MASK_VC_CAL_EXT_2_VC6_OC_4) << 3;
 301              		.loc 1 57 0
 302 0090 062F     		cmp	r7, #6	@ vc,
 303 0092 04D1     		bne	.L16	@,
  58:src/BQ7695.c  **** 		}
 304              		.loc 1 58 0
 305 0094 0223     		mov	r3, #2	@ tmp251,
 306 0096 3278     		ldrb	r2, [r6]	@ rx_buf, rx_buf
 307 0098 1340     		and	r3, r2	@ D.6661, rx_buf
 308 009a DB00     		lsl	r3, r3, #3	@ D.6661, D.6661,
 309 009c F6E7     		b	.L24	@
 310              	.L16:
  65:src/BQ7695.c  **** 		}
  66:src/BQ7695.c  **** 		else{
  67:src/BQ7695.c  **** 			sOffset = offset;
  68:src/BQ7695.c  **** 		}
  69:src/BQ7695.c  **** 	
  70:src/BQ7695.c  **** 	}
  71:src/BQ7695.c  **** 	else{
ARM GAS  /tmp/ccPmer3D.s 			page 8


  72:src/BQ7695.c  **** 		if(offset & 0x10){	// Convert the 5 bit two's complement
  73:src/BQ7695.c  **** 			sOffset = -1*(0x10-(offset & 0x0F));
  74:src/BQ7695.c  **** 		}
  75:src/BQ7695.c  **** 		else{
  76:src/BQ7695.c  **** 			sOffset = offset;
 311              		.loc 1 76 0
 312 009e E0B2     		uxtb	r0, r4	@ sOffset, offset
  72:src/BQ7695.c  **** 			sOffset = -1*(0x10-(offset & 0x0F));
 313              		.loc 1 72 0
 314 00a0 E306     		lsl	r3, r4, #27	@ tmp272, offset,
 315 00a2 01D5     		bpl	.L13	@,
  73:src/BQ7695.c  **** 		}
 316              		.loc 1 73 0
 317 00a4 F020     		mov	r0, #240	@ tmp264,
 318 00a6 2043     		orr	r0, r4	@ sOffset, offset
 319              	.LVL18:
 320              	.L13:
  77:src/BQ7695.c  **** 		}
  78:src/BQ7695.c  **** 	}
  79:src/BQ7695.c  **** 	return sOffset;
 321              		.loc 1 79 0
 322 00a8 40B2     		sxtb	r0, r0	@ sOffset, sOffset
  80:src/BQ7695.c  **** }
 323              		.loc 1 80 0
 324              		@ sp needed	@
 325 00aa F8BD     		pop	{r3, r4, r5, r6, r7, pc}
 326              	.L28:
 327              		.align	2
 328              	.L27:
 329 00ac 00000000 		.word	rx_buf
 330              		.cfi_endproc
 331              	.LFE200:
 332              		.size	BQ7695_read_offset_corr, .-BQ7695_read_offset_corr
 333              		.section	.text.BQ7695_read_gain_corr,"ax",%progbits
 334              		.align	1
 335              		.global	BQ7695_read_gain_corr
 336              		.code	16
 337              		.thumb_func
 338              		.type	BQ7695_read_gain_corr, %function
 339              	BQ7695_read_gain_corr:
 340              	.LFB201:
  81:src/BQ7695.c  **** 
  82:src/BQ7695.c  **** int8_t BQ7695_read_gain_corr(uint8_t vc){
 341              		.loc 1 82 0
 342              		.cfi_startproc
 343              	.LVL19:
  83:src/BQ7695.c  **** 	uint8_t gain = 0;
  84:src/BQ7695.c  **** 	int8_t sGain = 0;
  85:src/BQ7695.c  **** 	BQ7695_Read(I2C_ADDRESS_VREF_CAL + vc,rx_buf); // lower bits
 344              		.loc 1 85 0
 345 0000 031C     		mov	r3, r0	@ tmp166, vc
 346 0002 2021     		mov	r1, #32	@ tmp169,
  82:src/BQ7695.c  **** 	uint8_t gain = 0;
 347              		.loc 1 82 0
 348 0004 70B5     		push	{r4, r5, r6, lr}	@
 349              		.cfi_def_cfa_offset 16
 350              		.cfi_offset 4, -16
ARM GAS  /tmp/ccPmer3D.s 			page 9


 351              		.cfi_offset 5, -12
 352              		.cfi_offset 6, -8
 353              		.cfi_offset 14, -4
 354              		.loc 1 85 0
 355 0006 1033     		add	r3, r3, #16	@ tmp166,
 356 0008 234D     		ldr	r5, .L44	@ tmp171,
 357 000a 1943     		orr	r1, r3	@ tmp168, tmp166
  82:src/BQ7695.c  **** 	uint8_t gain = 0;
 358              		.loc 1 82 0
 359 000c 061C     		mov	r6, r0	@ vc, vc
 360              		.loc 1 85 0
 361 000e C9B2     		uxtb	r1, r1	@ tmp170, tmp168
 362 0010 0020     		mov	r0, #0	@,
 363              	.LVL20:
 364 0012 2A1C     		mov	r2, r5	@, tmp171
 365 0014 0123     		mov	r3, #1	@,
 366 0016 FFF7FEFF 		bl	Chip_I2C_MasterRead	@
 367              	.LVL21:
  86:src/BQ7695.c  **** 	gain = rx_buf[0];
 368              		.loc 1 86 0
 369 001a 2C78     		ldrb	r4, [r5]	@ gain, rx_buf
 370              	.LVL22:
  87:src/BQ7695.c  **** 	if(vc == 0){
 371              		.loc 1 87 0
 372 001c 002E     		cmp	r6, #0	@ vc,
 373 001e 06D1     		bne	.L30	@,
  88:src/BQ7695.c  **** 		BQ7695_Read(I2C_ADDRESS_VREF_CAL_EXT, rx_buf);
 374              		.loc 1 88 0
 375 0020 301C     		mov	r0, r6	@, vc
 376 0022 3B21     		mov	r1, #59	@,
 377 0024 2A1C     		mov	r2, r5	@, tmp171
 378 0026 0123     		mov	r3, #1	@,
 379 0028 FFF7FEFF 		bl	Chip_I2C_MasterRead	@
 380              	.LVL23:
 381 002c 28E0     		b	.L40	@
 382              	.L30:
  89:src/BQ7695.c  **** 		gain |= (rx_buf[0] & I2C_MASK_VREF_CAL_EXT_VREF_GC_4) << 4;
  90:src/BQ7695.c  **** 	}
  91:src/BQ7695.c  **** 	else if(vc < 3){
  92:src/BQ7695.c  **** 		BQ7695_Read(I2C_ADDRESS_VC_CAL_EXT_1,rx_buf);
 383              		.loc 1 92 0
 384 002e 0020     		mov	r0, #0	@,
  91:src/BQ7695.c  **** 		BQ7695_Read(I2C_ADDRESS_VC_CAL_EXT_1,rx_buf);
 385              		.loc 1 91 0
 386 0030 022E     		cmp	r6, #2	@ vc,
 387 0032 0AD8     		bhi	.L32	@,
 388              		.loc 1 92 0
 389 0034 2A1C     		mov	r2, r5	@, tmp171
 390 0036 0123     		mov	r3, #1	@,
 391 0038 3721     		mov	r1, #55	@,
 392 003a FFF7FEFF 		bl	Chip_I2C_MasterRead	@
 393              	.LVL24:
 394 003e 2B78     		ldrb	r3, [r5]	@ rx_buf, rx_buf
  93:src/BQ7695.c  **** 		if(vc == 1){
  94:src/BQ7695.c  **** 			gain |= (rx_buf[0] & I2C_MASK_VC_CAL_EXT_1_VC1_GC_4) >> 2;
 395              		.loc 1 94 0
 396 0040 4022     		mov	r2, #64	@ tmp189,
ARM GAS  /tmp/ccPmer3D.s 			page 10


  93:src/BQ7695.c  **** 		if(vc == 1){
 397              		.loc 1 93 0
 398 0042 012E     		cmp	r6, #1	@ vc,
 399 0044 0AD0     		beq	.L42	@,
  95:src/BQ7695.c  **** 		}
  96:src/BQ7695.c  **** 		else if(vc == 2){
  97:src/BQ7695.c  **** 			gain |= (rx_buf[0] & I2C_MASK_VC_CAL_EXT_1_VC2_GC_4);
 400              		.loc 1 97 0
 401 0046 1022     		mov	r2, #16	@ tmp199,
 402 0048 0FE0     		b	.L43	@
 403              	.L32:
  98:src/BQ7695.c  **** 		}
  99:src/BQ7695.c  **** 	}
 100:src/BQ7695.c  **** 	else{
 101:src/BQ7695.c  **** 		BQ7695_Read(I2C_ADDRESS_VREF_CAL_EXT, rx_buf);
 404              		.loc 1 101 0
 405 004a 3B21     		mov	r1, #59	@,
 406 004c 2A1C     		mov	r2, r5	@, tmp171
 407 004e 0123     		mov	r3, #1	@,
 408 0050 FFF7FEFF 		bl	Chip_I2C_MasterRead	@
 409              	.LVL25:
 102:src/BQ7695.c  **** 		if(vc == 3){
 410              		.loc 1 102 0
 411 0054 032E     		cmp	r6, #3	@ vc,
 412 0056 04D1     		bne	.L34	@,
 103:src/BQ7695.c  **** 			gain |= (rx_buf[0] & I2C_MASK_VC_CAL_EXT_2_VC3_GC_4) >> 2;
 413              		.loc 1 103 0
 414 0058 4023     		mov	r3, #64	@ tmp208,
 415 005a 2A78     		ldrb	r2, [r5]	@ rx_buf, rx_buf
 416              	.L42:
 417 005c 1340     		and	r3, r2	@ D.6668, rx_buf
 418 005e 9B10     		asr	r3, r3, #2	@ D.6668, D.6668,
 419 0060 12E0     		b	.L41	@
 420              	.L34:
 104:src/BQ7695.c  **** 		}
 105:src/BQ7695.c  **** 		else if(vc==4){
 421              		.loc 1 105 0
 422 0062 042E     		cmp	r6, #4	@ vc,
 423 0064 03D1     		bne	.L35	@,
 106:src/BQ7695.c  **** 			gain |= (rx_buf[0] & I2C_MASK_VC_CAL_EXT_2_VC4_GC_4);
 424              		.loc 1 106 0
 425 0066 1023     		mov	r3, #16	@ tmp218,
 426 0068 2A78     		ldrb	r2, [r5]	@ rx_buf, rx_buf
 427              	.L43:
 428 006a 1340     		and	r3, r2	@ tmp217, rx_buf
 429 006c 0CE0     		b	.L41	@
 430              	.L35:
 107:src/BQ7695.c  **** 		}
 108:src/BQ7695.c  **** 		else if(vc==5){
 431              		.loc 1 108 0
 432 006e 052E     		cmp	r6, #5	@ vc,
 433 0070 04D1     		bne	.L36	@,
 109:src/BQ7695.c  **** 			gain |= (rx_buf[0] & I2C_MASK_VC_CAL_EXT_2_VC5_GC_4) << 2;
 434              		.loc 1 109 0
 435 0072 0423     		mov	r3, #4	@ tmp226,
 436 0074 2A78     		ldrb	r2, [r5]	@ rx_buf, rx_buf
 437 0076 1340     		and	r3, r2	@ D.6668, rx_buf
ARM GAS  /tmp/ccPmer3D.s 			page 11


 438 0078 9B00     		lsl	r3, r3, #2	@ D.6668, D.6668,
 439 007a 05E0     		b	.L41	@
 440              	.L36:
 110:src/BQ7695.c  **** 		}
 111:src/BQ7695.c  **** 		else if(vc==6){
 441              		.loc 1 111 0
 442 007c 062E     		cmp	r6, #6	@ vc,
 443 007e 04D1     		bne	.L31	@,
 444              	.L40:
 112:src/BQ7695.c  **** 			gain |= (rx_buf[0] & I2C_MASK_VC_CAL_EXT_2_VC6_GC_4) << 4;
 445              		.loc 1 112 0
 446 0080 0123     		mov	r3, #1	@ tmp236,
 447 0082 2A78     		ldrb	r2, [r5]	@ rx_buf, rx_buf
 448 0084 1340     		and	r3, r2	@ D.6668, rx_buf
 449 0086 1B01     		lsl	r3, r3, #4	@ D.6668, D.6668,
 450              	.L41:
 451 0088 1C43     		orr	r4, r3	@ gain, D.6668
 452              	.LVL26:
 453              	.L31:
 113:src/BQ7695.c  **** 		}
 114:src/BQ7695.c  **** 	}
 115:src/BQ7695.c  **** 	if(gain & 0x10){	// Convert the 5 bit two's complement
 116:src/BQ7695.c  **** 		sGain = -1*(0x10-(gain & 0x0F));
 117:src/BQ7695.c  **** 	}
 118:src/BQ7695.c  **** 	else{
 119:src/BQ7695.c  **** 		sGain = gain;
 454              		.loc 1 119 0
 455 008a E0B2     		uxtb	r0, r4	@ sGain, gain
 115:src/BQ7695.c  **** 		sGain = -1*(0x10-(gain & 0x0F));
 456              		.loc 1 115 0
 457 008c E306     		lsl	r3, r4, #27	@ tmp253, gain,
 458 008e 01D5     		bpl	.L38	@,
 116:src/BQ7695.c  **** 	}
 459              		.loc 1 116 0
 460 0090 F020     		mov	r0, #240	@ tmp249,
 461 0092 2043     		orr	r0, r4	@ sGain, gain
 462              	.LVL27:
 463              	.L38:
 120:src/BQ7695.c  **** 	}
 121:src/BQ7695.c  **** 	return sGain;
 464              		.loc 1 121 0
 465 0094 40B2     		sxtb	r0, r0	@ sGain, sGain
 122:src/BQ7695.c  **** }
 466              		.loc 1 122 0
 467              		@ sp needed	@
 468              	.LVL28:
 469 0096 70BD     		pop	{r4, r5, r6, pc}
 470              	.L45:
 471              		.align	2
 472              	.L44:
 473 0098 00000000 		.word	rx_buf
 474              		.cfi_endproc
 475              	.LFE201:
 476              		.size	BQ7695_read_gain_corr, .-BQ7695_read_gain_corr
 477              		.section	.text.BQ7695_read_status,"ax",%progbits
 478              		.align	1
 479              		.global	BQ7695_read_status
ARM GAS  /tmp/ccPmer3D.s 			page 12


 480              		.code	16
 481              		.thumb_func
 482              		.type	BQ7695_read_status, %function
 483              	BQ7695_read_status:
 484              	.LFB202:
 123:src/BQ7695.c  **** 
 124:src/BQ7695.c  **** uint8_t BQ7695_read_status(){
 485              		.loc 1 124 0
 486              		.cfi_startproc
 487 0000 10B5     		push	{r4, lr}	@
 488              		.cfi_def_cfa_offset 8
 489              		.cfi_offset 4, -8
 490              		.cfi_offset 14, -4
 125:src/BQ7695.c  **** 	BQ7695_Read(I2C_ADDRESS_STATUS, rx_buf);
 491              		.loc 1 125 0
 492 0002 044C     		ldr	r4, .L47	@ tmp112,
 493 0004 2021     		mov	r1, #32	@,
 494 0006 221C     		mov	r2, r4	@, tmp112
 495 0008 0123     		mov	r3, #1	@,
 496 000a 0020     		mov	r0, #0	@,
 497 000c FFF7FEFF 		bl	Chip_I2C_MasterRead	@
 498              	.LVL29:
 126:src/BQ7695.c  **** 	return rx_buf[0];
 127:src/BQ7695.c  **** }
 499              		.loc 1 127 0
 500              		@ sp needed	@
 126:src/BQ7695.c  **** 	return rx_buf[0];
 501              		.loc 1 126 0
 502 0010 2078     		ldrb	r0, [r4]	@ rx_buf, rx_buf
 503              		.loc 1 127 0
 504 0012 10BD     		pop	{r4, pc}
 505              	.L48:
 506              		.align	2
 507              	.L47:
 508 0014 00000000 		.word	rx_buf
 509              		.cfi_endproc
 510              	.LFE202:
 511              		.size	BQ7695_read_status, .-BQ7695_read_status
 512              		.section	.text.BQ7695_over_current,"ax",%progbits
 513              		.align	1
 514              		.global	BQ7695_over_current
 515              		.code	16
 516              		.thumb_func
 517              		.type	BQ7695_over_current, %function
 518              	BQ7695_over_current:
 519              	.LFB203:
 128:src/BQ7695.c  **** 
 129:src/BQ7695.c  **** bool BQ7695_over_current(){
 520              		.loc 1 129 0
 521              		.cfi_startproc
 522 0000 10B5     		push	{r4, lr}	@
 523              		.cfi_def_cfa_offset 8
 524              		.cfi_offset 4, -8
 525              		.cfi_offset 14, -4
 130:src/BQ7695.c  **** 	BQ7695_Read(I2C_ADDRESS_STATUS, rx_buf);
 526              		.loc 1 130 0
 527 0002 054C     		ldr	r4, .L50	@ tmp114,
ARM GAS  /tmp/ccPmer3D.s 			page 13


 528 0004 2021     		mov	r1, #32	@,
 529 0006 221C     		mov	r2, r4	@, tmp114
 530 0008 0123     		mov	r3, #1	@,
 531 000a 0020     		mov	r0, #0	@,
 532 000c FFF7FEFF 		bl	Chip_I2C_MasterRead	@
 533              	.LVL30:
 131:src/BQ7695.c  **** 	return ((rx_buf[0] & I2C_MASK_STATUS_ALERT)!= 0);
 534              		.loc 1 131 0
 535 0010 2078     		ldrb	r0, [r4]	@ rx_buf, rx_buf
 132:src/BQ7695.c  **** }
 536              		.loc 1 132 0
 537              		@ sp needed	@
 131:src/BQ7695.c  **** 	return ((rx_buf[0] & I2C_MASK_STATUS_ALERT)!= 0);
 538              		.loc 1 131 0
 539 0012 4007     		lsl	r0, r0, #29	@ tmp121, rx_buf,
 540 0014 C00F     		lsr	r0, r0, #31	@ tmp122, tmp121,
 541              		.loc 1 132 0
 542 0016 10BD     		pop	{r4, pc}
 543              	.L51:
 544              		.align	2
 545              	.L50:
 546 0018 00000000 		.word	rx_buf
 547              		.cfi_endproc
 548              	.LFE203:
 549              		.size	BQ7695_over_current, .-BQ7695_over_current
 550              		.section	.text.BQ7695_read_cells,"ax",%progbits
 551              		.align	1
 552              		.global	BQ7695_read_cells
 553              		.code	16
 554              		.thumb_func
 555              		.type	BQ7695_read_cells, %function
 556              	BQ7695_read_cells:
 557              	.LFB205:
 133:src/BQ7695.c  **** 
 134:src/BQ7695.c  **** static inline void readCell(uint16_t *cell){
 135:src/BQ7695.c  **** 	
 136:src/BQ7695.c  **** 	Chip_ADC_SetStartMode(LPC_ADC, ADC_START_NOW, ADC_TRIGGERMODE_RISING);
 137:src/BQ7695.c  **** 	while (!Chip_ADC_ReadStatus(LPC_ADC, ADC_CH5, ADC_DR_DONE_STAT));	
 138:src/BQ7695.c  **** 	Chip_ADC_ReadValue(LPC_ADC, ADC_CH5, cell);
 139:src/BQ7695.c  **** }
 140:src/BQ7695.c  **** 
 141:src/BQ7695.c  **** void BQ7695_read_cells(uint16_t *cells){
 558              		.loc 1 141 0
 559              		.cfi_startproc
 560              	.LVL31:
 561 0000 38B5     		push	{r3, r4, r5, lr}	@
 562              		.cfi_def_cfa_offset 16
 563              		.cfi_offset 3, -16
 564              		.cfi_offset 4, -12
 565              		.cfi_offset 5, -8
 566              		.cfi_offset 14, -4
 142:src/BQ7695.c  **** 	uint8_t i = 0;
 567              		.loc 1 142 0
 568 0002 0024     		mov	r4, #0	@ i,
 569 0004 851C     		add	r5, r0, #2	@ ivtmp.34, cells,
 570              	.LVL32:
 571              	.L54:
ARM GAS  /tmp/ccPmer3D.s 			page 14


 143:src/BQ7695.c  **** 	while(i<7){
 144:src/BQ7695.c  **** 		BQ7695_set_cell(++i);
 572              		.loc 1 144 0
 573 0006 0134     		add	r4, r4, #1	@ tmp122,
 574              	.LVL33:
 575 0008 E4B2     		uxtb	r4, r4	@ i, tmp122
 576              	.LVL34:
 577 000a 201C     		mov	r0, r4	@, i
 578 000c FFF7FEFF 		bl	BQ7695_set_cell	@
 579              	.LVL35:
 580              	.LBB4:
 581              	.LBB5:
 136:src/BQ7695.c  **** 	while (!Chip_ADC_ReadStatus(LPC_ADC, ADC_CH5, ADC_DR_DONE_STAT));	
 582              		.loc 1 136 0
 583 0010 0A48     		ldr	r0, .L56	@,
 584 0012 0121     		mov	r1, #1	@,
 585 0014 0022     		mov	r2, #0	@,
 586 0016 FFF7FEFF 		bl	Chip_ADC_SetStartMode	@
 587              	.LVL36:
 588              	.L53:
 137:src/BQ7695.c  **** 	Chip_ADC_ReadValue(LPC_ADC, ADC_CH5, cell);
 589              		.loc 1 137 0
 590 001a 0848     		ldr	r0, .L56	@,
 591 001c 0521     		mov	r1, #5	@,
 592 001e 0022     		mov	r2, #0	@,
 593 0020 FFF7FEFF 		bl	Chip_ADC_ReadStatus	@
 594              	.LVL37:
 595 0024 0028     		cmp	r0, #0	@ tmp125,
 596 0026 F8D0     		beq	.L53	@,
 138:src/BQ7695.c  **** }
 597              		.loc 1 138 0
 598 0028 2A1C     		mov	r2, r5	@, ivtmp.34
 599 002a 0448     		ldr	r0, .L56	@,
 600 002c 0521     		mov	r1, #5	@,
 601 002e FFF7FEFF 		bl	Chip_ADC_ReadValue	@
 602              	.LVL38:
 603 0032 0235     		add	r5, r5, #2	@ ivtmp.34,
 604              	.LVL39:
 605              	.LBE5:
 606              	.LBE4:
 143:src/BQ7695.c  **** 		BQ7695_set_cell(++i);
 607              		.loc 1 143 0
 608 0034 072C     		cmp	r4, #7	@ i,
 609 0036 E6D1     		bne	.L54	@,
 145:src/BQ7695.c  **** 		readCell(&(cells[i]));
 146:src/BQ7695.c  **** 	}
 147:src/BQ7695.c  **** }
 610              		.loc 1 147 0
 611              		@ sp needed	@
 612              	.LVL40:
 613              	.LVL41:
 614 0038 38BD     		pop	{r3, r4, r5, pc}
 615              	.L57:
 616 003a C046     		.align	2
 617              	.L56:
 618 003c 00C00140 		.word	1073856512
 619              		.cfi_endproc
ARM GAS  /tmp/ccPmer3D.s 			page 15


 620              	.LFE205:
 621              		.size	BQ7695_read_cells, .-BQ7695_read_cells
 622              		.section	.text.BQ7695_read_current,"ax",%progbits
 623              		.align	1
 624              		.global	BQ7695_read_current
 625              		.code	16
 626              		.thumb_func
 627              		.type	BQ7695_read_current, %function
 628              	BQ7695_read_current:
 629              	.LFB206:
 148:src/BQ7695.c  **** 
 149:src/BQ7695.c  **** void BQ7695_read_current(uint16_t *current){
 630              		.loc 1 149 0
 631              		.cfi_startproc
 632              	.LVL42:
 633 0000 10B5     		push	{r4, lr}	@
 634              		.cfi_def_cfa_offset 8
 635              		.cfi_offset 4, -8
 636              		.cfi_offset 14, -4
 150:src/BQ7695.c  **** 	Chip_ADC_SetStartMode(LPC_ADC, ADC_START_NOW, ADC_TRIGGERMODE_RISING);
 637              		.loc 1 150 0
 638 0002 0121     		mov	r1, #1	@,
 149:src/BQ7695.c  **** 	Chip_ADC_SetStartMode(LPC_ADC, ADC_START_NOW, ADC_TRIGGERMODE_RISING);
 639              		.loc 1 149 0
 640 0004 041C     		mov	r4, r0	@ current, current
 641              		.loc 1 150 0
 642 0006 0022     		mov	r2, #0	@,
 643 0008 0748     		ldr	r0, .L61	@,
 644              	.LVL43:
 645 000a FFF7FEFF 		bl	Chip_ADC_SetStartMode	@
 646              	.LVL44:
 647              	.L59:
 151:src/BQ7695.c  **** 	while (!Chip_ADC_ReadStatus(LPC_ADC, ADC_CH4, ADC_DR_DONE_STAT));	
 648              		.loc 1 151 0 discriminator 1
 649 000e 0648     		ldr	r0, .L61	@,
 650 0010 0421     		mov	r1, #4	@,
 651 0012 0022     		mov	r2, #0	@,
 652 0014 FFF7FEFF 		bl	Chip_ADC_ReadStatus	@
 653              	.LVL45:
 654 0018 0028     		cmp	r0, #0	@ tmp114,
 655 001a F8D0     		beq	.L59	@,
 152:src/BQ7695.c  **** 	Chip_ADC_ReadValue(LPC_ADC, ADC_CH4, current);
 656              		.loc 1 152 0
 657 001c 0421     		mov	r1, #4	@,
 658 001e 221C     		mov	r2, r4	@, current
 659 0020 0148     		ldr	r0, .L61	@,
 660 0022 FFF7FEFF 		bl	Chip_ADC_ReadValue	@
 661              	.LVL46:
 153:src/BQ7695.c  **** }
 662              		.loc 1 153 0
 663              		@ sp needed	@
 664              	.LVL47:
 665 0026 10BD     		pop	{r4, pc}
 666              	.L62:
 667              		.align	2
 668              	.L61:
 669 0028 00C00140 		.word	1073856512
ARM GAS  /tmp/ccPmer3D.s 			page 16


 670              		.cfi_endproc
 671              	.LFE206:
 672              		.size	BQ7695_read_current, .-BQ7695_read_current
 673              		.section	.text.BQ7695_setup_corrections,"ax",%progbits
 674              		.align	1
 675              		.global	BQ7695_setup_corrections
 676              		.code	16
 677              		.thumb_func
 678              		.type	BQ7695_setup_corrections, %function
 679              	BQ7695_setup_corrections:
 680              	.LFB207:
 154:src/BQ7695.c  **** 
 155:src/BQ7695.c  **** void BQ7695_setup_corrections(int8_t *gc, int8_t *oc){
 681              		.loc 1 155 0
 682              		.cfi_startproc
 683              	.LVL48:
 684 0000 F8B5     		push	{r3, r4, r5, r6, r7, lr}	@
 685              		.cfi_def_cfa_offset 24
 686              		.cfi_offset 3, -24
 687              		.cfi_offset 4, -20
 688              		.cfi_offset 5, -16
 689              		.cfi_offset 6, -12
 690              		.cfi_offset 7, -8
 691              		.cfi_offset 14, -4
 692              		.loc 1 155 0
 693 0002 071C     		mov	r7, r0	@ gc, gc
 694 0004 0E1C     		mov	r6, r1	@ oc, oc
 695 0006 0024     		mov	r4, #0	@ ivtmp.42,
 696              	.LVL49:
 697              	.L64:
 698 0008 E5B2     		uxtb	r5, r4	@ i, ivtmp.42
 699              	.LVL50:
 156:src/BQ7695.c  **** 	uint8_t i =0;
 157:src/BQ7695.c  **** 	while(i<7){
 158:src/BQ7695.c  **** 		gc[i] = BQ7695_read_gain_corr(i);
 700              		.loc 1 158 0
 701 000a 281C     		mov	r0, r5	@, i
 702 000c FFF7FEFF 		bl	BQ7695_read_gain_corr	@
 703              	.LVL51:
 704 0010 3855     		strb	r0, [r7, r4]	@ tmp160, MEM[base: gc_5(D), index: ivtmp.42_17, offset: 0B]
 159:src/BQ7695.c  **** 		oc[i] = BQ7695_read_offset_corr(i);
 705              		.loc 1 159 0
 706 0012 281C     		mov	r0, r5	@, i
 707 0014 FFF7FEFF 		bl	BQ7695_read_offset_corr	@
 708              	.LVL52:
 709 0018 3055     		strb	r0, [r6, r4]	@ tmp163, MEM[base: oc_10(D), index: ivtmp.42_17, offset: 0B]
 710              	.LVL53:
 711 001a 0134     		add	r4, r4, #1	@ ivtmp.42,
 712              	.LVL54:
 157:src/BQ7695.c  **** 		gc[i] = BQ7695_read_gain_corr(i);
 713              		.loc 1 157 0
 714 001c 072C     		cmp	r4, #7	@ ivtmp.42,
 715 001e F3D1     		bne	.L64	@,
 160:src/BQ7695.c  **** 		i++;
 161:src/BQ7695.c  **** 	}
 162:src/BQ7695.c  **** }
 716              		.loc 1 162 0
ARM GAS  /tmp/ccPmer3D.s 			page 17


 717              		@ sp needed	@
 718              	.LVL55:
 719              	.LVL56:
 720              	.LVL57:
 721 0020 F8BD     		pop	{r3, r4, r5, r6, r7, pc}
 722              		.cfi_endproc
 723              	.LFE207:
 724              		.size	BQ7695_setup_corrections, .-BQ7695_setup_corrections
 725              		.comm	tx,1,1
 726              		.comm	rx_buf,10,1
 727              		.comm	msTicks,4,4
 728              		.text
 729              	.Letext0:
 730              		.file 2 "/usr/arm-none-eabi/include/machine/_default_types.h"
 731              		.file 3 "/usr/arm-none-eabi/include/sys/_stdint.h"
 732              		.file 4 "../../lpc11cx4-library/lpc_chip_11cxx_lib/inc/lpc_types.h"
 733              		.file 5 "../../lpc11cx4-library/lpc_chip_11cxx_lib/inc/adc_11xx.h"
 734              		.file 6 "../../lpc11cx4-library/lpc_chip_11cxx_lib/inc/i2c_11xx.h"
 735              		.file 7 "inc/board.h"