ARM GAS  /tmp/ccX6aHVO.s 			page 1


   1              		.cpu cortex-m0
   2              		.fpu softvfp
   3              		.eabi_attribute 20, 1	@ Tag_ABI_FP_denormal
   4              		.eabi_attribute 21, 1	@ Tag_ABI_FP_exceptions
   5              		.eabi_attribute 23, 3	@ Tag_ABI_FP_number_model
   6              		.eabi_attribute 24, 1	@ Tag_ABI_align8_needed
   7              		.eabi_attribute 25, 1	@ Tag_ABI_align8_preserved
   8              		.eabi_attribute 26, 1	@ Tag_ABI_enum_size
   9              		.eabi_attribute 30, 4	@ Tag_ABI_optimization_goals
  10              		.eabi_attribute 34, 0	@ Tag_CPU_unaligned_access
  11              		.eabi_attribute 18, 4	@ Tag_ABI_PCS_wchar_t
  12              		.file	"main.c"
  13              	@ GNU C (GNU Tools for ARM Embedded Processors) version 4.9.3 20150529 (release) [ARM/embedded-4_9-
  14              	@	compiled by GNU C version 4.8.4, GMP version 5.1.3, MPFR version 3.1.2-p3, MPC version 1.0.1
  15              	@ GGC heuristics: --param ggc-min-expand=98 --param ggc-min-heapsize=128397
  16              	@ options passed:  -I . -I ../../lpc11cx4-library/lpc_chip_11cxx_lib/inc
  17              	@ -I ../../lpc11cx4-library/evt_lib/inc -I inc -imultilib armv6-m
  18              	@ -iprefix /usr/bin/../lib/gcc/arm-none-eabi/4.9.3/
  19              	@ -isysroot /usr/bin/../arm-none-eabi -MD bin/main.d -MF bin/main.d -MP
  20              	@ -MQ bin/main.o -D__USES_INITFINI__ -D CORE_M0 src/main.c -mcpu=cortex-m0
  21              	@ -mthumb -auxbase-strip bin/main.o -g -ggdb3 -Os -Wall -Wstrict-prototypes
  22              	@ -Wextra -std=gnu90 -ffunction-sections -fdata-sections -fverbose-asm
  23              	@ -fstack-usage
  24              	@ options enabled:  -faggressive-loop-optimizations -fauto-inc-dec
  25              	@ -fbranch-count-reg -fcaller-saves -fcombine-stack-adjustments -fcommon
  26              	@ -fcompare-elim -fcprop-registers -fcrossjumping -fcse-follow-jumps
  27              	@ -fdata-sections -fdefer-pop -fdelete-null-pointer-checks -fdevirtualize
  28              	@ -fdevirtualize-speculatively -fdwarf2-cfi-asm -fearly-inlining
  29              	@ -feliminate-unused-debug-types -fexpensive-optimizations
  30              	@ -fforward-propagate -ffunction-cse -ffunction-sections -fgcse -fgcse-lm
  31              	@ -fgnu-runtime -fgnu-unique -fguess-branch-probability
  32              	@ -fhoist-adjacent-loads -fident -fif-conversion -fif-conversion2
  33              	@ -findirect-inlining -finline -finline-atomics -finline-functions
  34              	@ -finline-functions-called-once -finline-small-functions -fipa-cp
  35              	@ -fipa-profile -fipa-pure-const -fipa-reference -fipa-sra
  36              	@ -fira-hoist-pressure -fira-share-save-slots -fira-share-spill-slots
  37              	@ -fisolate-erroneous-paths-dereference -fivopts -fkeep-static-consts
  38              	@ -fleading-underscore -flifetime-dse -fmath-errno -fmerge-constants
  39              	@ -fmerge-debug-strings -fomit-frame-pointer -foptimize-sibling-calls
  40              	@ -fpartial-inlining -fpeephole -fpeephole2 -fprefetch-loop-arrays
  41              	@ -freg-struct-return -freorder-blocks -freorder-functions
  42              	@ -frerun-cse-after-loop -fsched-critical-path-heuristic
  43              	@ -fsched-dep-count-heuristic -fsched-group-heuristic -fsched-interblock
  44              	@ -fsched-last-insn-heuristic -fsched-pressure -fsched-rank-heuristic
  45              	@ -fsched-spec -fsched-spec-insn-heuristic -fsched-stalled-insns-dep
  46              	@ -fschedule-insns2 -fsection-anchors -fshow-column -fshrink-wrap
  47              	@ -fsigned-zeros -fsplit-ivs-in-unroller -fsplit-wide-types
  48              	@ -fstrict-aliasing -fstrict-overflow -fstrict-volatile-bitfields
  49              	@ -fsync-libcalls -fthread-jumps -ftoplevel-reorder -ftrapping-math
  50              	@ -ftree-bit-ccp -ftree-builtin-call-dce -ftree-ccp -ftree-ch
  51              	@ -ftree-coalesce-vars -ftree-copy-prop -ftree-copyrename -ftree-cselim
  52              	@ -ftree-dce -ftree-dominator-opts -ftree-dse -ftree-forwprop -ftree-fre
  53              	@ -ftree-loop-if-convert -ftree-loop-im -ftree-loop-ivcanon
  54              	@ -ftree-loop-optimize -ftree-parallelize-loops= -ftree-phiprop -ftree-pre
  55              	@ -ftree-pta -ftree-reassoc -ftree-scev-cprop -ftree-sink -ftree-slsr
  56              	@ -ftree-sra -ftree-switch-conversion -ftree-tail-merge -ftree-ter
  57              	@ -ftree-vrp -funit-at-a-time -fvar-tracking -fvar-tracking-assignments
ARM GAS  /tmp/ccX6aHVO.s 			page 2


  58              	@ -fverbose-asm -fzero-initialized-in-bss -mlittle-endian -mlra
  59              	@ -mpic-data-is-text-relative -msched-prolog -mthumb
  60              	@ -mvectorize-with-neon-quad
  61              	
  62              		.text
  63              	.Ltext0:
  64              		.cfi_sections	.debug_frame
  65              		.section	.text._delay,"ax",%progbits
  66              		.align	1
  67              		.global	_delay
  68              		.code	16
  69              		.thumb_func
  70              		.type	_delay, %function
  71              	_delay:
  72              	.LFB198:
  73              		.file 1 "src/main.c"
   1:src/main.c    **** #include "board.h"
   2:src/main.c    **** #include "BQ7695.h"
   3:src/main.c    **** #include <stdio.h>
   4:src/main.c    **** 
   5:src/main.c    **** // -------------------------------------------------------------
   6:src/main.c    **** // Macro Definitions
   7:src/main.c    **** #define UART_BAUD_RATE 57600 					// Desired UART Baud Rate
   8:src/main.c    **** 
   9:src/main.c    **** #define BUFFER_SIZE 8
  10:src/main.c    **** 
  11:src/main.c    **** // -------------------------------------------------------------
  12:src/main.c    **** // Static Variable Declaration
  13:src/main.c    **** 
  14:src/main.c    **** extern volatile uint32_t msTicks;
  15:src/main.c    **** 
  16:src/main.c    **** //static CCAN_MSG_OBJ_T msg_obj; 					// Message Object data structure for manipulating CAN message
  17:src/main.c    **** //static RINGBUFF_T can_rx_buffer;				// Ring Buffer for storing received CAN messages
  18:src/main.c    **** //static CCAN_MSG_OBJ_T _rx_buffer[BUFFER_SIZE]; 	// Underlying array used in ring buffer
  19:src/main.c    **** 
  20:src/main.c    **** //static char str[100];							// Used for composing UART messages
  21:src/main.c    **** static uint8_t uart_rx_buffer[BUFFER_SIZE]; 	// UART received message buffer
  22:src/main.c    **** 
  23:src/main.c    **** //static bool can_error_flag;
  24:src/main.c    **** //static uint32_t can_error_info;
  25:src/main.c    **** 
  26:src/main.c    **** static uint32_t lastPrint;
  27:src/main.c    **** static uint16_t cellVolts[8];
  28:src/main.c    **** static uint8_t data[10];
  29:src/main.c    **** static int8_t gc[7];
  30:src/main.c    **** static int8_t oc[7];
  31:src/main.c    **** // -------------------------------------------------------------
  32:src/main.c    **** // Helper Functions
  33:src/main.c    **** 
  34:src/main.c    **** /**
  35:src/main.c    ****  * Delay the processor for a given number of milliseconds
  36:src/main.c    ****  * @param ms Number of milliseconds to delay
  37:src/main.c    ****  */
  38:src/main.c    **** void _delay(uint32_t ms) {
  74              		.loc 1 38 0
  75              		.cfi_startproc
  76              	.LVL0:
ARM GAS  /tmp/ccX6aHVO.s 			page 3


  39:src/main.c    **** 	uint32_t curTicks = msTicks;
  77              		.loc 1 39 0
  78 0000 034B     		ldr	r3, .L4	@ tmp114,
  79 0002 1968     		ldr	r1, [r3]	@ curTicks, msTicks
  80              	.LVL1:
  81              	.L2:
  40:src/main.c    **** 	while ((msTicks - curTicks) < ms);
  82              		.loc 1 40 0 discriminator 1
  83 0004 1A68     		ldr	r2, [r3]	@ D.7305, msTicks
  84 0006 521A     		sub	r2, r2, r1	@ D.7305, D.7305, curTicks
  85 0008 8242     		cmp	r2, r0	@ D.7305, ms
  86 000a FBD3     		bcc	.L2	@,
  41:src/main.c    **** }
  87              		.loc 1 41 0
  88              		@ sp needed	@
  89 000c 7047     		bx	lr
  90              	.L5:
  91 000e C046     		.align	2
  92              	.L4:
  93 0010 00000000 		.word	msTicks
  94              		.cfi_endproc
  95              	.LFE198:
  96              		.size	_delay, .-_delay
  97              		.section	.text.I2C_IRQHandler,"ax",%progbits
  98              		.align	1
  99              		.global	I2C_IRQHandler
 100              		.code	16
 101              		.thumb_func
 102              		.type	I2C_IRQHandler, %function
 103              	I2C_IRQHandler:
 104              	.LFB200:
  42:src/main.c    **** 
  43:src/main.c    **** static inline void print_cells(void){
  44:src/main.c    **** 	uint8_t i = 1;
  45:src/main.c    **** 	while(i<7){
  46:src/main.c    **** 		Board_UART_Print("[Cell Voltage ");
  47:src/main.c    **** 		Board_UART_PrintNum(i,10,false);
  48:src/main.c    **** 		Board_UART_Print(": ");
  49:src/main.c    **** 
  50:src/main.c    **** //		Board_UART_PrintNum(((((3.3*cellVolts[i++]*1000)/1023)+oc[i])*(1+gc[i]))/gc[i],10,false);
  51:src/main.c    **** 		Board_UART_PrintNum((3.3*cellVolts[i++]*1000)/1023, 10, false);
  52:src/main.c    **** 		Board_UART_Println("]");
  53:src/main.c    **** 	}
  54:src/main.c    **** }
  55:src/main.c    **** 
  56:src/main.c    **** // -------------------------------------------------------------
  57:src/main.c    **** // Interrupt Service Routines
  58:src/main.c    **** 
  59:src/main.c    **** void I2C_IRQHandler(void){
 105              		.loc 1 59 0
 106              		.cfi_startproc
 107 0000 08B5     		push	{r3, lr}	@
 108              		.cfi_def_cfa_offset 8
 109              		.cfi_offset 3, -8
 110              		.cfi_offset 14, -4
  60:src/main.c    **** 	if(Chip_I2C_IsMasterActive(I2C0)){
 111              		.loc 1 60 0
ARM GAS  /tmp/ccX6aHVO.s 			page 4


 112 0002 0020     		mov	r0, #0	@,
 113 0004 FFF7FEFF 		bl	Chip_I2C_IsMasterActive	@
 114              	.LVL2:
 115 0008 0028     		cmp	r0, #0	@ D.7308,
 116 000a 03D0     		beq	.L7	@,
  61:src/main.c    **** 		Chip_I2C_MasterStateHandler(I2C0);
 117              		.loc 1 61 0
 118 000c 0020     		mov	r0, #0	@,
 119 000e FFF7FEFF 		bl	Chip_I2C_MasterStateHandler	@
 120              	.LVL3:
 121 0012 01E0     		b	.L6	@
 122              	.L7:
  62:src/main.c    **** 	}
  63:src/main.c    **** 	else{
  64:src/main.c    **** 		Chip_I2C_SlaveStateHandler(I2C0);
 123              		.loc 1 64 0
 124 0014 FFF7FEFF 		bl	Chip_I2C_SlaveStateHandler	@
 125              	.LVL4:
 126              	.L6:
  65:src/main.c    **** 	}
  66:src/main.c    **** }
 127              		.loc 1 66 0
 128              		@ sp needed	@
 129 0018 08BD     		pop	{r3, pc}
 130              		.cfi_endproc
 131              	.LFE200:
 132              		.size	I2C_IRQHandler, .-I2C_IRQHandler
 133              		.global	__aeabi_i2d
 134              		.global	__aeabi_dmul
 135              		.global	__aeabi_ddiv
 136              		.global	__aeabi_d2iz
 137              		.section	.text.startup.main,"ax",%progbits
 138              		.align	1
 139              		.global	main
 140              		.code	16
 141              		.thumb_func
 142              		.type	main, %function
 143              	main:
 144              	.LFB201:
  67:src/main.c    **** 
  68:src/main.c    **** 
  69:src/main.c    **** // -------------------------------------------------------------
  70:src/main.c    **** // Main Program Loop
  71:src/main.c    **** 
  72:src/main.c    **** int main(void)
  73:src/main.c    **** {
 145              		.loc 1 73 0
 146              		.cfi_startproc
 147 0000 F7B5     		push	{r0, r1, r2, r4, r5, r6, r7, lr}	@
 148              		.cfi_def_cfa_offset 32
 149              		.cfi_offset 0, -32
 150              		.cfi_offset 1, -28
 151              		.cfi_offset 2, -24
 152              		.cfi_offset 4, -20
 153              		.cfi_offset 5, -16
 154              		.cfi_offset 6, -12
 155              		.cfi_offset 7, -8
ARM GAS  /tmp/ccX6aHVO.s 			page 5


 156              		.cfi_offset 14, -4
  74:src/main.c    **** 
  75:src/main.c    **** 	//---------------
  76:src/main.c    **** 	// Initialize UART Communication
  77:src/main.c    **** 	Board_UART_Init(UART_BAUD_RATE);
 157              		.loc 1 77 0
 158 0002 E120     		mov	r0, #225	@,
 159 0004 0002     		lsl	r0, r0, #8	@,,
 160 0006 FFF7FEFF 		bl	Board_UART_Init	@
 161              	.LVL5:
  78:src/main.c    **** 	Board_UART_Println("Started up");
 162              		.loc 1 78 0
 163 000a 3748     		ldr	r0, .L19	@,
 164 000c FFF7FEFF 		bl	Board_UART_Println	@
 165              	.LVL6:
  79:src/main.c    **** //	Board_UART_PrintNum(&msTicks,16,true);
  80:src/main.c    **** //	int i=0;	
  81:src/main.c    **** //	while(i<8){
  82:src/main.c    **** //		Board_UART_PrintNum(&(cellVolts[i++]),16,true);
  83:src/main.c    **** //	}
  84:src/main.c    **** 	//---------------
  85:src/main.c    **** 	// Initialize SysTick Timer to generate millisecond count
  86:src/main.c    **** 	if (Board_SysTick_Init()) {
 166              		.loc 1 86 0
 167 0010 FFF7FEFF 		bl	Board_SysTick_Init	@
 168              	.LVL7:
 169 0014 0028     		cmp	r0, #0	@ tmp165,
 170 0016 03D0     		beq	.L10	@,
  87:src/main.c    **** 		Board_UART_Println("Failed to Initialize SysTick. ");
 171              		.loc 1 87 0
 172 0018 3448     		ldr	r0, .L19+4	@,
 173 001a FFF7FEFF 		bl	Board_UART_Println	@
 174              	.LVL8:
 175              	.L11:
  88:src/main.c    **** 		// Unrecoverable Error. Hang.
  89:src/main.c    **** 		while(1);
 176              		.loc 1 89 0 discriminator 1
 177 001e FEE7     		b	.L11	@
 178              	.L10:
  90:src/main.c    **** 	}
  91:src/main.c    **** 
  92:src/main.c    **** 	//---------------
  93:src/main.c    **** 	// Initialize GPIO and LED as output
  94:src/main.c    **** 	Board_LEDs_Init();
 179              		.loc 1 94 0
 180 0020 FFF7FEFF 		bl	Board_LEDs_Init	@
 181              	.LVL9:
 182              	.LBB10:
 183              	.LBB11:
 184              		.file 2 "../../lpc11cx4-library/lpc_chip_11cxx_lib/inc/gpio_11xx_2.h"
   1:../../lpc11cx4-library/lpc_chip_11cxx_lib/inc/gpio_11xx_2.h **** /*
   2:../../lpc11cx4-library/lpc_chip_11cxx_lib/inc/gpio_11xx_2.h ****  * @brief LPC11xx GPIO driver for CHIP_LPC11CXX, CHIP_LPC110X, CHIP_LPC11XXLV,
   3:../../lpc11cx4-library/lpc_chip_11cxx_lib/inc/gpio_11xx_2.h ****  * and CHIP_LPC1125 families only.
   4:../../lpc11cx4-library/lpc_chip_11cxx_lib/inc/gpio_11xx_2.h ****  *
   5:../../lpc11cx4-library/lpc_chip_11cxx_lib/inc/gpio_11xx_2.h ****  * @note
   6:../../lpc11cx4-library/lpc_chip_11cxx_lib/inc/gpio_11xx_2.h ****  * Copyright(C) NXP Semiconductors, 2013
   7:../../lpc11cx4-library/lpc_chip_11cxx_lib/inc/gpio_11xx_2.h ****  * All rights reserved.
ARM GAS  /tmp/ccX6aHVO.s 			page 6


   8:../../lpc11cx4-library/lpc_chip_11cxx_lib/inc/gpio_11xx_2.h ****  *
   9:../../lpc11cx4-library/lpc_chip_11cxx_lib/inc/gpio_11xx_2.h ****  * @par
  10:../../lpc11cx4-library/lpc_chip_11cxx_lib/inc/gpio_11xx_2.h ****  * Software that is described herein is for illustrative purposes only
  11:../../lpc11cx4-library/lpc_chip_11cxx_lib/inc/gpio_11xx_2.h ****  * which provides customers with programming information regarding the
  12:../../lpc11cx4-library/lpc_chip_11cxx_lib/inc/gpio_11xx_2.h ****  * LPC products.  This software is supplied "AS IS" without any warranties of
  13:../../lpc11cx4-library/lpc_chip_11cxx_lib/inc/gpio_11xx_2.h ****  * any kind, and NXP Semiconductors and its licensor disclaim any and
  14:../../lpc11cx4-library/lpc_chip_11cxx_lib/inc/gpio_11xx_2.h ****  * all warranties, express or implied, including all implied warranties of
  15:../../lpc11cx4-library/lpc_chip_11cxx_lib/inc/gpio_11xx_2.h ****  * merchantability, fitness for a particular purpose and non-infringement of
  16:../../lpc11cx4-library/lpc_chip_11cxx_lib/inc/gpio_11xx_2.h ****  * intellectual property rights.  NXP Semiconductors assumes no responsibility
  17:../../lpc11cx4-library/lpc_chip_11cxx_lib/inc/gpio_11xx_2.h ****  * or liability for the use of the software, conveys no license or rights under any
  18:../../lpc11cx4-library/lpc_chip_11cxx_lib/inc/gpio_11xx_2.h ****  * patent, copyright, mask work right, or any other intellectual property rights in
  19:../../lpc11cx4-library/lpc_chip_11cxx_lib/inc/gpio_11xx_2.h ****  * or to any products. NXP Semiconductors reserves the right to make changes
  20:../../lpc11cx4-library/lpc_chip_11cxx_lib/inc/gpio_11xx_2.h ****  * in the software without notification. NXP Semiconductors also makes no
  21:../../lpc11cx4-library/lpc_chip_11cxx_lib/inc/gpio_11xx_2.h ****  * representation or warranty that such application will be suitable for the
  22:../../lpc11cx4-library/lpc_chip_11cxx_lib/inc/gpio_11xx_2.h ****  * specified use without further testing or modification.
  23:../../lpc11cx4-library/lpc_chip_11cxx_lib/inc/gpio_11xx_2.h ****  *
  24:../../lpc11cx4-library/lpc_chip_11cxx_lib/inc/gpio_11xx_2.h ****  * @par
  25:../../lpc11cx4-library/lpc_chip_11cxx_lib/inc/gpio_11xx_2.h ****  * Permission to use, copy, modify, and distribute this software and its
  26:../../lpc11cx4-library/lpc_chip_11cxx_lib/inc/gpio_11xx_2.h ****  * documentation is hereby granted, under NXP Semiconductors' and its
  27:../../lpc11cx4-library/lpc_chip_11cxx_lib/inc/gpio_11xx_2.h ****  * licensor's relevant copyrights in the software, without fee, provided that it
  28:../../lpc11cx4-library/lpc_chip_11cxx_lib/inc/gpio_11xx_2.h ****  * is used in conjunction with NXP Semiconductors microcontrollers.  This
  29:../../lpc11cx4-library/lpc_chip_11cxx_lib/inc/gpio_11xx_2.h ****  * copyright, permission, and disclaimer notice must appear in all copies of
  30:../../lpc11cx4-library/lpc_chip_11cxx_lib/inc/gpio_11xx_2.h ****  * this code.
  31:../../lpc11cx4-library/lpc_chip_11cxx_lib/inc/gpio_11xx_2.h ****  */
  32:../../lpc11cx4-library/lpc_chip_11cxx_lib/inc/gpio_11xx_2.h **** 
  33:../../lpc11cx4-library/lpc_chip_11cxx_lib/inc/gpio_11xx_2.h **** #ifndef __GPIO_11XX_2_H_
  34:../../lpc11cx4-library/lpc_chip_11cxx_lib/inc/gpio_11xx_2.h **** #define __GPIO_11XX_2_H_
  35:../../lpc11cx4-library/lpc_chip_11cxx_lib/inc/gpio_11xx_2.h **** 
  36:../../lpc11cx4-library/lpc_chip_11cxx_lib/inc/gpio_11xx_2.h **** #ifdef __cplusplus
  37:../../lpc11cx4-library/lpc_chip_11cxx_lib/inc/gpio_11xx_2.h **** extern "C" {
  38:../../lpc11cx4-library/lpc_chip_11cxx_lib/inc/gpio_11xx_2.h **** #endif
  39:../../lpc11cx4-library/lpc_chip_11cxx_lib/inc/gpio_11xx_2.h **** 
  40:../../lpc11cx4-library/lpc_chip_11cxx_lib/inc/gpio_11xx_2.h **** /** @defgroup GPIO_11XX_2 CHIP: LPC11xx GPIO driver for CHIP_LPC11CXX, CHIP_LPC110X, and CHIP_LPC11
  41:../../lpc11cx4-library/lpc_chip_11cxx_lib/inc/gpio_11xx_2.h ****  * @ingroup CHIP_11XX_Drivers
  42:../../lpc11cx4-library/lpc_chip_11cxx_lib/inc/gpio_11xx_2.h ****  * For device familes identified with CHIP definitions CHIP_LPC11CXX,
  43:../../lpc11cx4-library/lpc_chip_11cxx_lib/inc/gpio_11xx_2.h ****  * CHIP_LPC110X, and CHIP_LPC11XXLV only.
  44:../../lpc11cx4-library/lpc_chip_11cxx_lib/inc/gpio_11xx_2.h ****  * @{
  45:../../lpc11cx4-library/lpc_chip_11cxx_lib/inc/gpio_11xx_2.h ****  */
  46:../../lpc11cx4-library/lpc_chip_11cxx_lib/inc/gpio_11xx_2.h **** 
  47:../../lpc11cx4-library/lpc_chip_11cxx_lib/inc/gpio_11xx_2.h **** #if defined(CHIP_LPC11CXX) || defined(CHIP_LPC110X) || defined(CHIP_LPC11XXLV) || defined(CHIP_LPC1
  48:../../lpc11cx4-library/lpc_chip_11cxx_lib/inc/gpio_11xx_2.h **** 
  49:../../lpc11cx4-library/lpc_chip_11cxx_lib/inc/gpio_11xx_2.h **** /**
  50:../../lpc11cx4-library/lpc_chip_11cxx_lib/inc/gpio_11xx_2.h ****  * @brief  GPIO port register block structure
  51:../../lpc11cx4-library/lpc_chip_11cxx_lib/inc/gpio_11xx_2.h ****  */
  52:../../lpc11cx4-library/lpc_chip_11cxx_lib/inc/gpio_11xx_2.h **** typedef struct {				/*!< GPIO_PORT Structure */
  53:../../lpc11cx4-library/lpc_chip_11cxx_lib/inc/gpio_11xx_2.h **** 	__IO uint32_t DATA[4096];			/*!< Offset: 0x0000 to 0x3FFC Data address masking register (R/W) */
  54:../../lpc11cx4-library/lpc_chip_11cxx_lib/inc/gpio_11xx_2.h **** 	uint32_t RESERVED1[4096];
  55:../../lpc11cx4-library/lpc_chip_11cxx_lib/inc/gpio_11xx_2.h **** 	__IO uint32_t DIR;					/*!< Offset: 0x8000 Data direction register (R/W) */
  56:../../lpc11cx4-library/lpc_chip_11cxx_lib/inc/gpio_11xx_2.h **** 	__IO uint32_t IS;					/*!< Offset: 0x8004 Interrupt sense register (R/W) */
  57:../../lpc11cx4-library/lpc_chip_11cxx_lib/inc/gpio_11xx_2.h **** 	__IO uint32_t IBE;					/*!< Offset: 0x8008 Interrupt both edges register (R/W) */
  58:../../lpc11cx4-library/lpc_chip_11cxx_lib/inc/gpio_11xx_2.h **** 	__IO uint32_t IEV;					/*!< Offset: 0x800C Interrupt event register  (R/W) */
  59:../../lpc11cx4-library/lpc_chip_11cxx_lib/inc/gpio_11xx_2.h **** 	__IO uint32_t IE;					/*!< Offset: 0x8010 Interrupt mask register (R/W) */
  60:../../lpc11cx4-library/lpc_chip_11cxx_lib/inc/gpio_11xx_2.h **** 	__I  uint32_t RIS;					/*!< Offset: 0x8014 Raw interrupt status register (R/ ) */
  61:../../lpc11cx4-library/lpc_chip_11cxx_lib/inc/gpio_11xx_2.h **** 	__I  uint32_t MIS;					/*!< Offset: 0x8018 Masked interrupt status register (R/ ) */
  62:../../lpc11cx4-library/lpc_chip_11cxx_lib/inc/gpio_11xx_2.h **** 	__O  uint32_t IC;					/*!< Offset: 0x801C Interrupt clear register (W) */
  63:../../lpc11cx4-library/lpc_chip_11cxx_lib/inc/gpio_11xx_2.h **** 	uint32_t RESERVED2[8184];			/* Padding added for aligning contiguous GPIO blocks */
  64:../../lpc11cx4-library/lpc_chip_11cxx_lib/inc/gpio_11xx_2.h **** } LPC_GPIO_T;
ARM GAS  /tmp/ccX6aHVO.s 			page 7


  65:../../lpc11cx4-library/lpc_chip_11cxx_lib/inc/gpio_11xx_2.h **** 
  66:../../lpc11cx4-library/lpc_chip_11cxx_lib/inc/gpio_11xx_2.h **** /**
  67:../../lpc11cx4-library/lpc_chip_11cxx_lib/inc/gpio_11xx_2.h ****  * @brief	Initialize GPIO block
  68:../../lpc11cx4-library/lpc_chip_11cxx_lib/inc/gpio_11xx_2.h ****  * @param	pGPIO	: The base of GPIO peripheral on the chip
  69:../../lpc11cx4-library/lpc_chip_11cxx_lib/inc/gpio_11xx_2.h ****  * @return	Nothing
  70:../../lpc11cx4-library/lpc_chip_11cxx_lib/inc/gpio_11xx_2.h ****  */
  71:../../lpc11cx4-library/lpc_chip_11cxx_lib/inc/gpio_11xx_2.h **** void Chip_GPIO_Init(LPC_GPIO_T *pGPIO);
  72:../../lpc11cx4-library/lpc_chip_11cxx_lib/inc/gpio_11xx_2.h **** 
  73:../../lpc11cx4-library/lpc_chip_11cxx_lib/inc/gpio_11xx_2.h **** /**
  74:../../lpc11cx4-library/lpc_chip_11cxx_lib/inc/gpio_11xx_2.h ****  * @brief	De-Initialize GPIO block
  75:../../lpc11cx4-library/lpc_chip_11cxx_lib/inc/gpio_11xx_2.h ****  * @param	pGPIO	: The base of GPIO peripheral on the chip
  76:../../lpc11cx4-library/lpc_chip_11cxx_lib/inc/gpio_11xx_2.h ****  * @return	Nothing
  77:../../lpc11cx4-library/lpc_chip_11cxx_lib/inc/gpio_11xx_2.h ****  */
  78:../../lpc11cx4-library/lpc_chip_11cxx_lib/inc/gpio_11xx_2.h **** void Chip_GPIO_DeInit(LPC_GPIO_T *pGPIO);
  79:../../lpc11cx4-library/lpc_chip_11cxx_lib/inc/gpio_11xx_2.h **** 
  80:../../lpc11cx4-library/lpc_chip_11cxx_lib/inc/gpio_11xx_2.h **** /**
  81:../../lpc11cx4-library/lpc_chip_11cxx_lib/inc/gpio_11xx_2.h ****  * @brief	Set a GPIO port/bit state
  82:../../lpc11cx4-library/lpc_chip_11cxx_lib/inc/gpio_11xx_2.h ****  * @param	pGPIO	: The base of GPIO peripheral on the chip
  83:../../lpc11cx4-library/lpc_chip_11cxx_lib/inc/gpio_11xx_2.h ****  * @param	port	: GPIO port to set
  84:../../lpc11cx4-library/lpc_chip_11cxx_lib/inc/gpio_11xx_2.h ****  * @param	bit		: GPIO bit to set
  85:../../lpc11cx4-library/lpc_chip_11cxx_lib/inc/gpio_11xx_2.h ****  * @param	setting	: true for high, false for low
  86:../../lpc11cx4-library/lpc_chip_11cxx_lib/inc/gpio_11xx_2.h ****  * @return	Nothing
  87:../../lpc11cx4-library/lpc_chip_11cxx_lib/inc/gpio_11xx_2.h ****  */
  88:../../lpc11cx4-library/lpc_chip_11cxx_lib/inc/gpio_11xx_2.h **** STATIC INLINE void Chip_GPIO_WritePortBit(LPC_GPIO_T *pGPIO, uint32_t port, uint8_t bit, bool setti
  89:../../lpc11cx4-library/lpc_chip_11cxx_lib/inc/gpio_11xx_2.h **** {
  90:../../lpc11cx4-library/lpc_chip_11cxx_lib/inc/gpio_11xx_2.h **** 	pGPIO[port].DATA[1 << bit] = setting << bit;
  91:../../lpc11cx4-library/lpc_chip_11cxx_lib/inc/gpio_11xx_2.h **** }
  92:../../lpc11cx4-library/lpc_chip_11cxx_lib/inc/gpio_11xx_2.h **** 
  93:../../lpc11cx4-library/lpc_chip_11cxx_lib/inc/gpio_11xx_2.h **** /**
  94:../../lpc11cx4-library/lpc_chip_11cxx_lib/inc/gpio_11xx_2.h ****  * @brief	Set a GPIO pin state via the GPIO byte register
  95:../../lpc11cx4-library/lpc_chip_11cxx_lib/inc/gpio_11xx_2.h ****  * @param	pGPIO	: The base of GPIO peripheral on the chip
  96:../../lpc11cx4-library/lpc_chip_11cxx_lib/inc/gpio_11xx_2.h ****  * @param	port	: Port number
  97:../../lpc11cx4-library/lpc_chip_11cxx_lib/inc/gpio_11xx_2.h ****  * @param	pin		: GPIO pin to set
  98:../../lpc11cx4-library/lpc_chip_11cxx_lib/inc/gpio_11xx_2.h ****  * @param	setting	: true for high, false for low
  99:../../lpc11cx4-library/lpc_chip_11cxx_lib/inc/gpio_11xx_2.h ****  * @return	Nothing
 100:../../lpc11cx4-library/lpc_chip_11cxx_lib/inc/gpio_11xx_2.h ****  * @note	This function replaces Chip_GPIO_WritePortBit()
 101:../../lpc11cx4-library/lpc_chip_11cxx_lib/inc/gpio_11xx_2.h ****  */
 102:../../lpc11cx4-library/lpc_chip_11cxx_lib/inc/gpio_11xx_2.h **** STATIC INLINE void Chip_GPIO_SetPinState(LPC_GPIO_T *pGPIO, uint8_t port, uint8_t pin, bool setting
 103:../../lpc11cx4-library/lpc_chip_11cxx_lib/inc/gpio_11xx_2.h **** {
 104:../../lpc11cx4-library/lpc_chip_11cxx_lib/inc/gpio_11xx_2.h **** 	pGPIO[port].DATA[1 << pin] = setting << pin;
 185              		.loc 2 104 0
 186 0024 2022     		mov	r2, #32	@ tmp170,
 187 0026 324B     		ldr	r3, .L19+8	@ tmp169,
 188 0028 DA67     		str	r2, [r3, #124]	@ tmp170, MEM[(struct LPC_GPIO_T *)1342308352B].DATA
 189              	.LBE11:
 190              	.LBE10:
  95:src/main.c    **** 	Board_LED_On(LED0);
  96:src/main.c    **** 
  97:src/main.c    **** 
  98:src/main.c    **** 	//---------------
  99:src/main.c    **** 	// Initialize Things relevant to taking data
 100:src/main.c    **** 	Board_I2C_Init();
 191              		.loc 1 100 0
 192 002a FFF7FEFF 		bl	Board_I2C_Init	@
 193              	.LVL10:
 101:src/main.c    **** 	Board_ADC_Init();
 194              		.loc 1 101 0
ARM GAS  /tmp/ccX6aHVO.s 			page 8


 195 002e FFF7FEFF 		bl	Board_ADC_Init	@
 196              	.LVL11:
 102:src/main.c    **** 	
 103:src/main.c    **** 	BQ7695_disable_unecessary();	
 197              		.loc 1 103 0
 198 0032 FFF7FEFF 		bl	BQ7695_disable_unecessary	@
 199              	.LVL12:
 104:src/main.c    **** 	BQ7695_setup_corrections(gc,oc);
 200              		.loc 1 104 0
 201 0036 2F48     		ldr	r0, .L19+12	@,
 202 0038 2F49     		ldr	r1, .L19+16	@,
 203 003a FFF7FEFF 		bl	BQ7695_setup_corrections	@
 204              	.LVL13:
 105:src/main.c    **** 
 106:src/main.c    **** 	int i = 0;
 107:src/main.c    **** //	while(i<7){
 108:src/main.c    **** //		Board_UART_PrintNum(gc[i],10,true);
 109:src/main.c    **** //		Board_UART_PrintNum(oc[i++],10,true);
 110:src/main.c    **** //	}
 111:src/main.c    **** 
 112:src/main.c    **** 	msTicks = 1000;
 205              		.loc 1 112 0
 206 003e FA23     		mov	r3, #250	@ tmp174,
 207 0040 2E4C     		ldr	r4, .L19+20	@ tmp173,
 208 0042 9B00     		lsl	r3, r3, #2	@ tmp174, tmp174,
 209 0044 2360     		str	r3, [r4]	@ tmp174, msTicks
 113:src/main.c    **** 	lastPrint = msTicks;
 210              		.loc 1 113 0
 211 0046 2368     		ldr	r3, [r4]	@ D.7327, msTicks
 212 0048 2D4D     		ldr	r5, .L19+24	@ tmp176,
 213 004a 2B60     		str	r3, [r5]	@ D.7327, lastPrint
 214              	.L14:
 215              	.LBB12:
 114:src/main.c    **** 	
 115:src/main.c    **** 	while (1) {
 116:src/main.c    **** 
 117:src/main.c    **** 		if(lastPrint < msTicks-1000){
 216              		.loc 1 117 0
 217 004c 2D4A     		ldr	r2, .L19+28	@ tmp208,
 218 004e 2368     		ldr	r3, [r4]	@ D.7327, msTicks
 219 0050 9B18     		add	r3, r3, r2	@ D.7327, D.7327, tmp208
 220 0052 2A68     		ldr	r2, [r5]	@ tmp209, lastPrint
 221 0054 9A42     		cmp	r2, r3	@ tmp209, D.7327
 222 0056 0BD3     		bcc	.L12	@,
 223              	.L16:
 118:src/main.c    **** 			lastPrint = msTicks;
 119:src/main.c    **** 			BQ7695_read_cells(cellVolts);
 120:src/main.c    **** 			Board_UART_Print("[msTicks : ");	
 121:src/main.c    **** 			Board_UART_PrintNum(msTicks,10,false);
 122:src/main.c    **** 			Board_UART_Println("]");
 123:src/main.c    **** 			print_cells();
 124:src/main.c    **** 		}
 125:src/main.c    **** 		uint8_t count;
 126:src/main.c    **** 		if ((count = Board_UART_Read(uart_rx_buffer, BUFFER_SIZE)) != 0) {
 224              		.loc 1 126 0
 225 0058 2B4E     		ldr	r6, .L19+32	@ tmp181,
 226 005a 0821     		mov	r1, #8	@,
ARM GAS  /tmp/ccX6aHVO.s 			page 9


 227 005c 301C     		mov	r0, r6	@, tmp181
 228 005e FFF7FEFF 		bl	Board_UART_Read	@
 229              	.LVL14:
 230 0062 C1B2     		uxtb	r1, r0	@ count, tmp182
 231              	.LVL15:
 232 0064 0029     		cmp	r1, #0	@ count,
 233 0066 F1D0     		beq	.L14	@,
 127:src/main.c    **** 			Board_UART_SendBlocking(uart_rx_buffer, count); // Echo user input
 234              		.loc 1 127 0
 235 0068 301C     		mov	r0, r6	@, tmp181
 236 006a FFF7FEFF 		bl	Board_UART_SendBlocking	@
 237              	.LVL16:
 238 006e EDE7     		b	.L14	@
 239              	.L12:
 122:src/main.c    **** 			print_cells();
 240              		.loc 1 122 0
 241 0070 0126     		mov	r6, #1	@ ivtmp.26,
 119:src/main.c    **** 			Board_UART_Print("[msTicks : ");	
 242              		.loc 1 119 0
 243 0072 264F     		ldr	r7, .L19+36	@ tmp186,
 118:src/main.c    **** 			BQ7695_read_cells(cellVolts);
 244              		.loc 1 118 0
 245 0074 2368     		ldr	r3, [r4]	@ D.7327, msTicks
 119:src/main.c    **** 			Board_UART_Print("[msTicks : ");	
 246              		.loc 1 119 0
 247 0076 381C     		mov	r0, r7	@, tmp186
 118:src/main.c    **** 			BQ7695_read_cells(cellVolts);
 248              		.loc 1 118 0
 249 0078 2B60     		str	r3, [r5]	@ D.7327, lastPrint
 119:src/main.c    **** 			Board_UART_Print("[msTicks : ");	
 250              		.loc 1 119 0
 251 007a FFF7FEFF 		bl	BQ7695_read_cells	@
 252              	.LVL17:
 120:src/main.c    **** 			Board_UART_PrintNum(msTicks,10,false);
 253              		.loc 1 120 0
 254 007e 2448     		ldr	r0, .L19+40	@,
 255 0080 FFF7FEFF 		bl	Board_UART_Print	@
 256              	.LVL18:
 121:src/main.c    **** 			Board_UART_Println("]");
 257              		.loc 1 121 0
 258 0084 2068     		ldr	r0, [r4]	@ D.7327, msTicks
 259 0086 0A21     		mov	r1, #10	@,
 260 0088 0022     		mov	r2, #0	@,
 261 008a FFF7FEFF 		bl	Board_UART_PrintNum	@
 262              	.LVL19:
 122:src/main.c    **** 			print_cells();
 263              		.loc 1 122 0
 264 008e 2148     		ldr	r0, .L19+44	@,
 265 0090 FFF7FEFF 		bl	Board_UART_Println	@
 266              	.LVL20:
 267 0094 1F4B     		ldr	r3, .L19+44	@ tmp205,
 268 0096 0193     		str	r3, [sp, #4]	@ tmp205, %sfp
 269              	.LVL21:
 270              	.L15:
 271              	.LBB13:
 272              	.LBB14:
  46:src/main.c    **** 		Board_UART_PrintNum(i,10,false);
ARM GAS  /tmp/ccX6aHVO.s 			page 10


 273              		.loc 1 46 0
 274 0098 1F48     		ldr	r0, .L19+48	@,
 275 009a FFF7FEFF 		bl	Board_UART_Print	@
 276              	.LVL22:
  47:src/main.c    **** 		Board_UART_Print(": ");
 277              		.loc 1 47 0
 278 009e 0022     		mov	r2, #0	@,
 279 00a0 301C     		mov	r0, r6	@, ivtmp.26
 280 00a2 0A21     		mov	r1, #10	@,
 281 00a4 FFF7FEFF 		bl	Board_UART_PrintNum	@
 282              	.LVL23:
  48:src/main.c    **** 
 283              		.loc 1 48 0
 284 00a8 1C48     		ldr	r0, .L19+52	@,
 285 00aa FFF7FEFF 		bl	Board_UART_Print	@
 286              	.LVL24:
 287 00ae 7300     		lsl	r3, r6, #1	@ D.7331, ivtmp.26,
  51:src/main.c    **** 		Board_UART_Println("]");
 288              		.loc 1 51 0
 289 00b0 F85A     		ldrh	r0, [r7, r3]	@ D.7328, MEM[symbol: cellVolts, index: _56, offset: 0B]
 290 00b2 FFF7FEFF 		bl	__aeabi_i2d	@
 291              	.LVL25:
 292 00b6 1A4A     		ldr	r2, .L19+56	@,
 293 00b8 1A4B     		ldr	r3, .L19+60	@,
 294 00ba FFF7FEFF 		bl	__aeabi_dmul	@
 295              	.LVL26:
 296 00be 0022     		mov	r2, #0	@,
 297 00c0 194B     		ldr	r3, .L19+64	@,
 298 00c2 FFF7FEFF 		bl	__aeabi_dmul	@
 299              	.LVL27:
 300 00c6 194B     		ldr	r3, .L19+68	@,
 301 00c8 0022     		mov	r2, #0	@,
 302 00ca FFF7FEFF 		bl	__aeabi_ddiv	@
 303              	.LVL28:
 304 00ce FFF7FEFF 		bl	__aeabi_d2iz	@
 305              	.LVL29:
 306 00d2 0A21     		mov	r1, #10	@,
 307 00d4 0022     		mov	r2, #0	@,
 308 00d6 FFF7FEFF 		bl	Board_UART_PrintNum	@
 309              	.LVL30:
 310 00da 0136     		add	r6, r6, #1	@ ivtmp.26,
 311              	.LVL31:
  52:src/main.c    **** 	}
 312              		.loc 1 52 0
 313 00dc 0198     		ldr	r0, [sp, #4]	@, %sfp
 314 00de FFF7FEFF 		bl	Board_UART_Println	@
 315              	.LVL32:
  45:src/main.c    **** 		Board_UART_Print("[Cell Voltage ");
 316              		.loc 1 45 0
 317 00e2 072E     		cmp	r6, #7	@ ivtmp.26,
 318 00e4 D8D1     		bne	.L15	@,
 319 00e6 B7E7     		b	.L16	@
 320              	.L20:
 321              		.align	2
 322              	.L19:
 323 00e8 00000000 		.word	.LC3
 324 00ec 0B000000 		.word	.LC5
ARM GAS  /tmp/ccX6aHVO.s 			page 11


 325 00f0 04000250 		.word	1342308356
 326 00f4 00000000 		.word	.LANCHOR0
 327 00f8 00000000 		.word	.LANCHOR1
 328 00fc 00000000 		.word	msTicks
 329 0100 00000000 		.word	.LANCHOR2
 330 0104 18FCFFFF 		.word	-1000
 331 0108 00000000 		.word	.LANCHOR3
 332 010c 00000000 		.word	.LANCHOR4
 333 0110 2A000000 		.word	.LC13
 334 0114 36000000 		.word	.LC15
 335 0118 38000000 		.word	.LC17
 336 011c 47000000 		.word	.LC19
 337 0120 66666666 		.word	1717986918
 338 0124 66660A40 		.word	1074423398
 339 0128 00408F40 		.word	1083129856
 340 012c 00F88F40 		.word	1083176960
 341              	.LBE14:
 342              	.LBE13:
 343              	.LBE12:
 344              		.cfi_endproc
 345              	.LFE201:
 346              		.size	main, .-main
 347              		.comm	msTicks,4,4
 348              		.section	.bss.oc,"aw",%nobits
 349              		.set	.LANCHOR1,. + 0
 350              		.type	oc, %object
 351              		.size	oc, 7
 352              	oc:
 353 0000 00000000 		.space	7
 353      000000
 354              		.section	.bss.uart_rx_buffer,"aw",%nobits
 355              		.set	.LANCHOR3,. + 0
 356              		.type	uart_rx_buffer, %object
 357              		.size	uart_rx_buffer, 8
 358              	uart_rx_buffer:
 359 0000 00000000 		.space	8
 359      00000000 
 360              		.section	.bss.lastPrint,"aw",%nobits
 361              		.align	2
 362              		.set	.LANCHOR2,. + 0
 363              		.type	lastPrint, %object
 364              		.size	lastPrint, 4
 365              	lastPrint:
 366 0000 00000000 		.space	4
 367              		.section	.bss.cellVolts,"aw",%nobits
 368              		.align	1
 369              		.set	.LANCHOR4,. + 0
 370              		.type	cellVolts, %object
 371              		.size	cellVolts, 16
 372              	cellVolts:
 373 0000 00000000 		.space	16
 373      00000000 
 373      00000000 
 373      00000000 
 374              		.section	.rodata.str1.1,"aMS",%progbits,1
 375              	.LC3:
 376 0000 53746172 		.ascii	"Started up\000"
ARM GAS  /tmp/ccX6aHVO.s 			page 12


 376      74656420 
 376      757000
 377              	.LC5:
 378 000b 4661696C 		.ascii	"Failed to Initialize SysTick. \000"
 378      65642074 
 378      6F20496E 
 378      69746961 
 378      6C697A65 
 379              	.LC13:
 380 002a 5B6D7354 		.ascii	"[msTicks : \000"
 380      69636B73 
 380      203A2000 
 381              	.LC15:
 382 0036 5D00     		.ascii	"]\000"
 383              	.LC17:
 384 0038 5B43656C 		.ascii	"[Cell Voltage \000"
 384      6C20566F 
 384      6C746167 
 384      652000
 385              	.LC19:
 386 0047 3A2000   		.ascii	": \000"
 387              		.section	.bss.gc,"aw",%nobits
 388              		.set	.LANCHOR0,. + 0
 389              		.type	gc, %object
 390              		.size	gc, 7
 391              	gc:
 392 0000 00000000 		.space	7
 392      000000
 393              		.text
 394              	.Letext0:
 395              		.file 3 "/usr/arm-none-eabi/include/machine/_default_types.h"
 396              		.file 4 "/usr/arm-none-eabi/include/sys/_stdint.h"
 397              		.file 5 "../../lpc11cx4-library/lpc_chip_11cxx_lib/inc/i2c_11xx.h"
 398              		.file 6 "inc/board.h"
 399              		.file 7 "inc/BQ7695.h"